;--------------------------------------------------------
; File Created by SDCC : free open source ANSI-C Compiler
; Version 3.5.2 #9293 (MINGW64)
; This file was generated Tue Sep 15 21:02:54 2015
;--------------------------------------------------------
	.module code
	.optsdcc -mz80
	
;--------------------------------------------------------
; Public variables in this module
;--------------------------------------------------------
	.globl _main
	.globl _pause
	.globl _datos
	.globl _asm_data_quezesto
	.globl _cpc_WyzInitPlayer
	.globl _cpc_WyzTestPlayer
	.globl _cpc_WyzSetPlayerOff
	.globl _cpc_WyzSetPlayerOn
	.globl _cpc_WyzStartEffect
	.globl _cpc_WyzLoadSong
	.globl _cpc_AssignKey
	.globl _cpc_TestKeyF
	.globl _cpc_ScanKeyboard
	.globl _cpc_SetInkGphStrM1
	.globl _cpc_PrintGphStrXYM12X
	.globl _cpc_PrintGphStrXYM1
	.globl _cpc_PutSpXOR
	.globl _cpc_PrintStr
	.globl _cpc_DisableFirmware
	.globl _cpc_EnableFirmware
	.globl _cpc_GetScrAddress
	.globl _cpc_SetColour
	.globl _cpc_SetModo
	.globl _pelota
	.globl _SONG_4
	.globl _SONG_3
	.globl _SONG_2
	.globl _SONG_1
	.globl _SONG_0
;--------------------------------------------------------
; special function registers
;--------------------------------------------------------
;--------------------------------------------------------
; ram data
;--------------------------------------------------------
	.area _DATA
;--------------------------------------------------------
; ram data
;--------------------------------------------------------
	.area _INITIALIZED
;--------------------------------------------------------
; absolute external ram data
;--------------------------------------------------------
	.area _DABS (ABS)
;--------------------------------------------------------
; global & static initialisations
;--------------------------------------------------------
	.area _HOME
	.area _GSINIT
	.area _GSFINAL
	.area _GSINIT
;--------------------------------------------------------
; Home
;--------------------------------------------------------
	.area _HOME
	.area _HOME
;--------------------------------------------------------
; code
;--------------------------------------------------------
	.area _CODE
;datos.h:26: void asm_data_quezesto(void) {
;	---------------------------------
; Function asm_data_quezesto
; ---------------------------------
_asm_data_quezesto::
;datos.h:217: __endasm;
	_SONG_TABLE_0:
	.dw _SONG_0
	_RULE_TABLE_0:
	.dw PAUTA_0,PAUTA_1,PAUTA_2,PAUTA_3,PAUTA_4,PAUTA_5,PAUTA_6
	PAUTA_0:
	.DB #46,#0,#12,#0,#10,#0,#9,#0,#129
	PAUTA_1:
	.DB #46,#0,#13,#0,#12,#0,#10,#0,#10,#0,#9,#0,#8,#0,#12,#0,#10,#0,#9,#0,#129
	PAUTA_2:
	.DB #7,#0,#8,#0,#9,#0,#9,#0,#8,#0,#7,#0,#6,#0,#129
	PAUTA_3:
	.DB #45,#0,#12,#0,#12,#0,#11,#0,#11,#0,#10,#0,#10,#0,#9,#0,#129
	PAUTA_4:
	.DB #7,#0,#8,#0,#8,#0,#8,#0,#7,#0,#6,#0,#6,#0,#6,#0,#6,#0,#6,#0,#5,#0,#5,#0,#5,#0,#5,#0,#5,#0,#138
	PAUTA_5:
	.DB #7,#0,#8,#0,#9,#0,#8,#0,#7,#0,#6,#0,#129
	PAUTA_6:
	.DB #77,#0,#12,#0,#11,#0,#10,#0,#9,#0,#8,#0,#7,#0,#9,#0,#8,#0,#7,#0,#129
	_SOUND_TABLE_0:
	.dw SONIDO1
	.dw SONIDO2
	.dw SONIDO3
	SONIDO0:
	.DB #23,#63,#0,#116,#110,#0,#255
	SONIDO1:
	.DB #162,#47,#0,#23,#93,#9,#255
	SONIDO2:
	.DB #0,#10,#5,#255
	SONIDO3:
	.DB #186,#58,#0,#0,#102,#0,#162,#131,#0,#255
	_SONG_TABLE_1:
	.dw _SONG_1
	_RULE_TABLE_1:
	.dw PAUTA_10,PAUTA_11,PAUTA_12,PAUTA_13
	PAUTA_11:
	.DB #10,#0,#11,#0,#10,#0,#9,#0,#8,#0,#8,#0,#8,#0,#8,#0,#8,#0,#8,#0,#7,#0,#7,#0,#7,#0,#7,#0,#136
	PAUTA_12:
	.DB #44,#0,#11,#0,#10,#0,#9,#0,#8,#0,#129
	PAUTA_13:
	.DB #9,#0,#8,#0,#7,#0,#6,#0,#129
	PAUTA_10:
	.DB #13,#0,#12,#0,#11,#0,#10,#0,#10,#0,#10,#0,#10,#0,#10,#0,#9,#0,#9,#0,#9,#0,#9,#0,#9,#0,#138
	_SOUND_TABLE_1:
	.dw SONIDO10
	.dw SONIDO11
	.dw SONIDO12
	SONIDO10:
	.DB #0,#62,#0,#0,#89,#0,#255
	SONIDO11:
	.DB #209,#46,#0,#46,#59,#1,#0,#87,#7,#255
	SONIDO12:
	.DB #0,#10,#2,#255
	_SONG_TABLE_2:
	.dw _SONG_2
	_RULE_TABLE_2:
	.DW PAUTA_20,#0,PAUTA_22,PAUTA_23
	PAUTA_20:
	.DB #14,#0,#13,#0,#12,#0,#11,#0,#11,#0,#10,#0,#10,#0,#10,#0,#9,#0,#9,#0,#9,#0,#9,#0,#8,#0,#8,#0,#8,#0,#8,#0,#7,#0,#7,#0,#7,#0,#7,#0,#136
	PAUTA_22:
	.DB #78,#0,#13,#0,#12,#0,#10,#0,#10,#0,#9,#0,#9,#0,#9,#0,#9,#0,#9,#0,#9,#0,#9,#0,#10,#0,#10,#0,#139
	PAUTA_23:
	.DB #9,#0,#9,#0,#8,#0,#8,#0,#8,#0,#7,#0,#7,#0,#7,#0,#7,#0,#7,#0,#129
	_SOUND_TABLE_2:
	.DW #0
	_SONG_TABLE_3:
	.dw _SONG_3
	_RULE_TABLE_3:
	.dw PAUTA_30,PAUTA_31,PAUTA_32,PAUTA_33,PAUTA_34,PAUTA_35,PAUTA_36
	PAUTA_30:
	.db #46,#0,#13,#0,#12,#0,#11,#0,#129
	PAUTA_31:
	.db #8,#0,#74,#0,#11,#0,#43,#0,#10,#0,#72,#0,#8,#0,#40,#0,#8,#0,#132
	PAUTA_32:
	.db #4,#0,#71,#0,#8,#0,#40,#0,#8,#0,#70,#0,#5,#0,#37,#0,#5,#0,#69,#0,#132
	PAUTA_33:
	.db #73,#0,#10,#0,#11,#0,#12,#0,#11,#0,#10,#0,#9,#0,#8,#0,#129
	PAUTA_34:
	.db #71,#0,#8,#0,#8,#0,#8,#0,#7,#0,#6,#0,#129
	PAUTA_35:
	.db #3,#0,#69,#0,#5,#0,#36,#0,#3,#0,#2,#0,#129
	PAUTA_36:
	.db #43,#0,#12,#0,#12,#0,#12,#0,#12,#0,#11,#0,#11,#0,#11,#0,#11,#0,#10,#0,#10,#0,#10,#0,#10,#0,#11,#0,#11,#0,#11,#0,#11,#0,#144
	_SOUND_TABLE_3:
	.dw SONIDO30,SONIDO31,SONIDO32,SONIDO33
	SONIDO30:
	.db #209,#63,#0,#69,#173,#0,#255
	SONIDO31:
	.db #93,#45,#0,#162,#44,#2,#0,#7,#1,#255
	SONIDO32:
	.db #0,#11,#1,#0,#6,#1,#255
	SONIDO33:
	.db #186,#57,#0,#0,#102,#0,#162,#131,#0,#255
	_SONG_TABLE_4:
	.dw _SONG_4
	_RULE_TABLE_4:
	.dw PAUTA_40,PAUTA_41,PAUTA_42,PAUTA_43,PAUTA_44,PAUTA_45,PAUTA_46,PAUTA_47
	PAUTA_40:
	.db 42,#0,#11,#0,#12,#0,#11,#0,#10,#0,#9,#0,#129
	PAUTA_41:
	.db 73,#0,#10,#0,#42,#0,#9,#0,#8,#0,#7,#0,#7,#0,#7,#0,#7,#0,#6,#0,#6,#0,#6,#0,#6,#0,#136
	PAUTA_42:
	.db 70,#0,#7,#0,#40,#0,#7,#0,#6,#0,#5,#0,#129
	PAUTA_43:
	.db 73,#0,#10,#0,#11,#0,#12,#0,#11,#0,#10,#0,#9,#0,#8,#0,#129
	PAUTA_44:
	.db 71,#0,#8,#0,#8,#0,#8,#0,#7,#0,#6,#0,#6,#0,#6,#0,#6,#0,#6,#0,#6,#0,#5,#0,#5,#0,#5,#0,#5,#0,#5,#0,#5,#0,#140
	PAUTA_45:
	.db 68,#0,#5,#0,#37,#0,#5,#0,#4,#0,#3,#0,#129
	PAUTA_46:
	.db 38,#0,#7,#0,#8,#0,#8,#0,#7,#0,#7,#0,#6,#0,#129
	PAUTA_47:
	.db 77,#0,#44,#0,#11,#0,#9,#0,#8,#0,#8,#0,#8,#0,#7,#0,#7,#0,#6,#0,#7,#0,#6,#0,#6,#0,#5,#0,#5,#0,#129
	_SOUND_TABLE_4:
	.dw SONIDO40,SONIDO41,SONIDO42,SONIDO43
	SONIDO40:
	.db 209,#61,#0,#46,#91,#0,#209,#121,#0,#255
	SONIDO41:
	.db 232,#44,#0,#23,#59,#5,#232,#58,#3,#0,#9,#2,#0,#8,#1,#0,#7,#1,#255
	SONIDO42:
	.db 16,#9,#1,#255
	SONIDO43:
	.db 186,#57,#0,#0,#102,#0,#162,#131,#0,#255
	_EFFECT_TABLE:
	.dw _EFECTO0
	.dw _EFECTO1
	.dw _EFECTO2
	.dw _EFECTO3
	_EFECTO0:
	.db #0x58,#0x0D
	.db #0x50,#0x0B
	.db #0x47,#0x0A
	.db #0x3E,#0x06
	.db #0x35,#0x03
	.db #0x50,#0x09
	.db #0x47,#0x0A
	.db #0x3E,#0x07
	.db #0xFF
	_EFECTO1:
	.db #0x58,#0x0C
	.db #0x5D,#0x0D
	.db #0x61,#0x0E
	.db #0x66,#0x0F
	.db #0x6A,#0x0E
	.db #0x6F,#0x0D
	.db #0x7A,#0x0C
	.db #0x78,#0x0B
	.db #0x7C,#0x0A
	.db #0x85,#0x09
	.db #0x8E,#0x08
	.db #0x97,#0x07
	.db #0xA0,#0x06
	.db #0xA9,#0x05
	.db #0xFF
	_EFECTO2:
	.db #0x1F,#0x0B
	.db #0x1A,#0x0C
	.db #0x1F,#0x0D
	.db #0x16,#0x0E
	.db #0x1F,#0x0E
	.db #0x0D,#0x0D
	.db #0x1F,#0x0C
	.db #0x0D,#0x0B
	.db #0x00,#0x00
	.db #0x00,#0x00
	.db #0x1F,#0x08
	.db #0x1A,#0x09
	.db #0x1F,#0x0A
	.db #0x16,#0x0B
	.db #0x1F,#0x0B
	.db #0x0D,#0x0A
	.db #0x1F,#0x09
	.db #0x0D,#0x07
	.db #0x00,#0x00
	.db #0x00,#0x00
	.db #0x1F,#0x06
	.db #0x1A,#0x07
	.db #0x1F,#0x08
	.db #0x16,#0x08
	.db #0x1F,#0x07
	.db #0x0D,#0x06
	.db #0x1F,#0x05
	.db #0xFF
	_EFECTO3:
	.db #0x1A,#0x0E
	.db #0x1A,#0x0E
	.db #0x00,#0x00
	.db #0x1A,#0x0A
	.db #0x1A,#0x0A
	.db #0x00,#0x00
	.db #0x1A,#0x0C
	.db #0x1A,#0x0C
	.db #0x00,#0x00
	.db #0x1A,#0x08
	.db #0x1A,#0x08
	.db #0xFF
	ret
;code.c:35: void datos(void) {
;	---------------------------------
; Function datos
; ---------------------------------
_datos::
;code.c:53: __endasm;
	 _texto04:
	.asciz "RED;ALERT"
	 _texto05:
	.asciz "CANCION;NUEVA"
	 _texto06:
	.asciz "GOTHIC"
	 _texto07:
	.asciz "MARYJANE"
	 _texto08:
	.asciz "MIDNIGHT;XPRES"
	 _texto09:
	.asciz ";;;;;;;;;;;;;;;"
	 _texto10:
	.asciz "AHORA;SONANDO:"
	ret
_SONG_0:
	.db #0x05	; 5
	.db #0x07	; 7
	.db #0x00	; 0
	.db #0x00	; 0
	.db #0x3F	; 63
	.db #0x00	; 0
	.db #0x52	; 82	'R'
	.db #0x12	; 18
	.db #0x12	; 18
	.db #0x52	; 82	'R'
	.db #0x52	; 82	'R'
	.db #0x12	; 18
	.db #0x12	; 18
	.db #0x52	; 82	'R'
	.db #0x52	; 82	'R'
	.db #0x12	; 18
	.db #0x12	; 18
	.db #0x50	; 80	'P'
	.db #0x10	; 16
	.db #0x10	; 16
	.db #0x50	; 80	'P'
	.db #0x50	; 80	'P'
	.db #0x10	; 16
	.db #0x10	; 16
	.db #0x50	; 80	'P'
	.db #0x50	; 80	'P'
	.db #0x10	; 16
	.db #0x10	; 16
	.db #0x4E	; 78	'N'
	.db #0x0E	; 14
	.db #0x0E	; 14
	.db #0x4E	; 78	'N'
	.db #0x4E	; 78	'N'
	.db #0x0E	; 14
	.db #0x0E	; 14
	.db #0x4E	; 78	'N'
	.db #0x4E	; 78	'N'
	.db #0x0E	; 14
	.db #0x0E	; 14
	.db #0x4D	; 77	'M'
	.db #0x0D	; 13
	.db #0x0D	; 13
	.db #0x4D	; 77	'M'
	.db #0x4D	; 77	'M'
	.db #0x0D	; 13
	.db #0x0D	; 13
	.db #0x4D	; 77	'M'
	.db #0x4D	; 77	'M'
	.db #0x0D	; 13
	.db #0x0D	; 13
	.db #0x52	; 82	'R'
	.db #0x52	; 82	'R'
	.db #0x52	; 82	'R'
	.db #0x12	; 18
	.db #0x12	; 18
	.db #0x52	; 82	'R'
	.db #0x52	; 82	'R'
	.db #0x52	; 82	'R'
	.db #0x12	; 18
	.db #0x12	; 18
	.db #0x55	; 85	'U'
	.db #0x55	; 85	'U'
	.db #0x55	; 85	'U'
	.db #0x15	; 21
	.db #0x15	; 21
	.db #0x55	; 85	'U'
	.db #0x55	; 85	'U'
	.db #0x55	; 85	'U'
	.db #0x15	; 21
	.db #0x15	; 21
	.db #0x57	; 87	'W'
	.db #0x57	; 87	'W'
	.db #0x57	; 87	'W'
	.db #0x17	; 23
	.db #0x17	; 23
	.db #0x57	; 87	'W'
	.db #0x57	; 87	'W'
	.db #0x57	; 87	'W'
	.db #0x17	; 23
	.db #0x17	; 23
	.db #0x5A	; 90	'Z'
	.db #0x5A	; 90	'Z'
	.db #0x5A	; 90	'Z'
	.db #0x1A	; 26
	.db #0x1A	; 26
	.db #0x5A	; 90	'Z'
	.db #0x5A	; 90	'Z'
	.db #0x5C	; 92
	.db #0x1C	; 28
	.db #0x1C	; 28
	.db #0x52	; 82	'R'
	.db #0x52	; 82	'R'
	.db #0x52	; 82	'R'
	.db #0x12	; 18
	.db #0x12	; 18
	.db #0x52	; 82	'R'
	.db #0x52	; 82	'R'
	.db #0x52	; 82	'R'
	.db #0x12	; 18
	.db #0x12	; 18
	.db #0x55	; 85	'U'
	.db #0x55	; 85	'U'
	.db #0x55	; 85	'U'
	.db #0x15	; 21
	.db #0x15	; 21
	.db #0x55	; 85	'U'
	.db #0x55	; 85	'U'
	.db #0x55	; 85	'U'
	.db #0x15	; 21
	.db #0x15	; 21
	.db #0x57	; 87	'W'
	.db #0x57	; 87	'W'
	.db #0x57	; 87	'W'
	.db #0x17	; 23
	.db #0x17	; 23
	.db #0x57	; 87	'W'
	.db #0x57	; 87	'W'
	.db #0x57	; 87	'W'
	.db #0x17	; 23
	.db #0x17	; 23
	.db #0x59	; 89	'Y'
	.db #0x59	; 89	'Y'
	.db #0x59	; 89	'Y'
	.db #0x19	; 25
	.db #0x19	; 25
	.db #0x57	; 87	'W'
	.db #0x55	; 85	'U'
	.db #0x54	; 84	'T'
	.db #0x51	; 81	'Q'
	.db #0x52	; 82	'R'
	.db #0x52	; 82	'R'
	.db #0x52	; 82	'R'
	.db #0x12	; 18
	.db #0x12	; 18
	.db #0x52	; 82	'R'
	.db #0x52	; 82	'R'
	.db #0x52	; 82	'R'
	.db #0x12	; 18
	.db #0x12	; 18
	.db #0x55	; 85	'U'
	.db #0x55	; 85	'U'
	.db #0x55	; 85	'U'
	.db #0x15	; 21
	.db #0x15	; 21
	.db #0x55	; 85	'U'
	.db #0x55	; 85	'U'
	.db #0x55	; 85	'U'
	.db #0x15	; 21
	.db #0x15	; 21
	.db #0x57	; 87	'W'
	.db #0x57	; 87	'W'
	.db #0x57	; 87	'W'
	.db #0x17	; 23
	.db #0x17	; 23
	.db #0x57	; 87	'W'
	.db #0x57	; 87	'W'
	.db #0x57	; 87	'W'
	.db #0x17	; 23
	.db #0x17	; 23
	.db #0x5A	; 90	'Z'
	.db #0x5A	; 90	'Z'
	.db #0x5A	; 90	'Z'
	.db #0x1A	; 26
	.db #0x1A	; 26
	.db #0x5A	; 90	'Z'
	.db #0x5A	; 90	'Z'
	.db #0x5C	; 92
	.db #0x1C	; 28
	.db #0x1C	; 28
	.db #0x52	; 82	'R'
	.db #0x52	; 82	'R'
	.db #0x52	; 82	'R'
	.db #0x12	; 18
	.db #0x12	; 18
	.db #0x52	; 82	'R'
	.db #0x52	; 82	'R'
	.db #0x52	; 82	'R'
	.db #0x12	; 18
	.db #0x12	; 18
	.db #0x50	; 80	'P'
	.db #0x50	; 80	'P'
	.db #0x50	; 80	'P'
	.db #0x10	; 16
	.db #0x10	; 16
	.db #0x50	; 80	'P'
	.db #0x50	; 80	'P'
	.db #0x50	; 80	'P'
	.db #0x10	; 16
	.db #0x10	; 16
	.db #0x4E	; 78	'N'
	.db #0x4E	; 78	'N'
	.db #0x4E	; 78	'N'
	.db #0x0E	; 14
	.db #0x0E	; 14
	.db #0x4E	; 78	'N'
	.db #0x4E	; 78	'N'
	.db #0x4E	; 78	'N'
	.db #0x0E	; 14
	.db #0x0E	; 14
	.db #0x50	; 80	'P'
	.db #0x50	; 80	'P'
	.db #0x50	; 80	'P'
	.db #0x10	; 16
	.db #0x10	; 16
	.db #0x50	; 80	'P'
	.db #0x50	; 80	'P'
	.db #0x10	; 16
	.db #0x14	; 20
	.db #0x17	; 23
	.db #0x14	; 20
	.db #0x19	; 25
	.db #0x19	; 25
	.db #0x52	; 82	'R'
	.db #0x52	; 82	'R'
	.db #0x12	; 18
	.db #0x12	; 18
	.db #0x50	; 80	'P'
	.db #0x50	; 80	'P'
	.db #0x50	; 80	'P'
	.db #0x10	; 16
	.db #0x10	; 16
	.db #0x4E	; 78	'N'
	.db #0x4E	; 78	'N'
	.db #0x4E	; 78	'N'
	.db #0x0E	; 14
	.db #0x0E	; 14
	.db #0x50	; 80	'P'
	.db #0x50	; 80	'P'
	.db #0x50	; 80	'P'
	.db #0x10	; 16
	.db #0x10	; 16
	.db #0x19	; 25
	.db #0x19	; 25
	.db #0x52	; 82	'R'
	.db #0x12	; 18
	.db #0x12	; 18
	.db #0x52	; 82	'R'
	.db #0x50	; 80	'P'
	.db #0x50	; 80	'P'
	.db #0x10	; 16
	.db #0x10	; 16
	.db #0x50	; 80	'P'
	.db #0x55	; 85	'U'
	.db #0x55	; 85	'U'
	.db #0x15	; 21
	.db #0x15	; 21
	.db #0x55	; 85	'U'
	.db #0x57	; 87	'W'
	.db #0x57	; 87	'W'
	.db #0x17	; 23
	.db #0x17	; 23
	.db #0x57	; 87	'W'
	.db #0x19	; 25
	.db #0x19	; 25
	.db #0x52	; 82	'R'
	.db #0x52	; 82	'R'
	.db #0x12	; 18
	.db #0x12	; 18
	.db #0x50	; 80	'P'
	.db #0x50	; 80	'P'
	.db #0x50	; 80	'P'
	.db #0x10	; 16
	.db #0x10	; 16
	.db #0x4E	; 78	'N'
	.db #0x4E	; 78	'N'
	.db #0x4E	; 78	'N'
	.db #0x0E	; 14
	.db #0x0E	; 14
	.db #0x50	; 80	'P'
	.db #0x50	; 80	'P'
	.db #0x50	; 80	'P'
	.db #0x10	; 16
	.db #0x10	; 16
	.db #0x19	; 25
	.db #0x19	; 25
	.db #0x52	; 82	'R'
	.db #0x12	; 18
	.db #0x12	; 18
	.db #0x52	; 82	'R'
	.db #0x50	; 80	'P'
	.db #0x50	; 80	'P'
	.db #0x10	; 16
	.db #0x10	; 16
	.db #0x50	; 80	'P'
	.db #0x19	; 25
	.db #0x19	; 25
	.db #0x59	; 89	'Y'
	.db #0x19	; 25
	.db #0x19	; 25
	.db #0x59	; 89	'Y'
	.db #0x59	; 89	'Y'
	.db #0x59	; 89	'Y'
	.db #0x19	; 25
	.db #0x19	; 25
	.db #0x59	; 89	'Y'
	.db #0x17	; 23
	.db #0x19	; 25
	.db #0x59	; 89	'Y'
	.db #0x59	; 89	'Y'
	.db #0x59	; 89	'Y'
	.db #0x57	; 87	'W'
	.db #0x57	; 87	'W'
	.db #0x15	; 21
	.db #0x15	; 21
	.db #0x14	; 20
	.db #0x14	; 20
	.db #0x00	; 0
	.db #0x3F	; 63
	.db #0x03	; 3
	.db #0x71	; 113	'q'
	.db #0x81	; 129
	.db #0x6F	; 111	'o'
	.db #0x81	; 129
	.db #0x71	; 113	'q'
	.db #0x72	; 114	'r'
	.db #0x71	; 113	'q'
	.db #0x81	; 129
	.db #0x6F	; 111	'o'
	.db #0x81	; 129
	.db #0x6C	; 108	'l'
	.db #0x6D	; 109	'm'
	.db #0x71	; 113	'q'
	.db #0x81	; 129
	.db #0x6F	; 111	'o'
	.db #0x81	; 129
	.db #0x71	; 113	'q'
	.db #0x72	; 114	'r'
	.db #0x71	; 113	'q'
	.db #0x81	; 129
	.db #0x72	; 114	'r'
	.db #0x81	; 129
	.db #0xB4	; 180
	.db #0xA1	; 161
	.db #0xAA	; 170
	.db #0xAD	; 173
	.db #0x2C	; 44
	.db #0x01	; 1
	.db #0x28	; 40
	.db #0x01	; 1
	.db #0xAA	; 170
	.db #0xBE	; 190
	.db #0xAD	; 173
	.db #0xBE	; 190
	.db #0xB1	; 177
	.db #0x2F	; 47
	.db #0x01	; 1
	.db #0xEA	; 234
	.db #0xFE	; 254
	.db #0x41	; 65	'A'
	.db #0x21	; 33
	.db #0x21	; 33
	.db #0x61	; 97	'a'
	.db #0x21	; 33
	.db #0x21	; 33
	.db #0x61	; 97	'a'
	.db #0x61	; 97	'a'
	.db #0x61	; 97	'a'
	.db #0x20	; 32
	.db #0x23	; 35
	.db #0x68	; 104	'h'
	.db #0xA5	; 165
	.db #0xAA	; 170
	.db #0x6D	; 109	'm'
	.db #0x28	; 40
	.db #0x01	; 1
	.db #0x2A	; 42
	.db #0x01	; 1
	.db #0x2C	; 44
	.db #0x01	; 1
	.db #0xAD	; 173
	.db #0xBE	; 190
	.db #0xA8	; 168
	.db #0xBE	; 190
	.db #0xB4	; 180
	.db #0xF3	; 243
	.db #0xFE	; 254
	.db #0xFE	; 254
	.db #0x68	; 104	'h'
	.db #0x28	; 40
	.db #0x27	; 39
	.db #0x28	; 40
	.db #0x27	; 39
	.db #0x28	; 40
	.db #0x2A	; 42
	.db #0x6C	; 108	'l'
	.db #0x2C	; 44
	.db #0x2A	; 42
	.db #0x2C	; 44
	.db #0x2A	; 42
	.db #0x2C	; 44
	.db #0x31	; 49	'1'
	.db #0xA1	; 161
	.db #0xAA	; 170
	.db #0xAD	; 173
	.db #0x2C	; 44
	.db #0x01	; 1
	.db #0x28	; 40
	.db #0x01	; 1
	.db #0xAA	; 170
	.db #0xBE	; 190
	.db #0xAD	; 173
	.db #0xBE	; 190
	.db #0xB1	; 177
	.db #0x2F	; 47
	.db #0x01	; 1
	.db #0xEA	; 234
	.db #0xFE	; 254
	.db #0x41	; 65	'A'
	.db #0x21	; 33
	.db #0x21	; 33
	.db #0x61	; 97	'a'
	.db #0x21	; 33
	.db #0x21	; 33
	.db #0x61	; 97	'a'
	.db #0x61	; 97	'a'
	.db #0x61	; 97	'a'
	.db #0x20	; 32
	.db #0x23	; 35
	.db #0x68	; 104	'h'
	.db #0xA5	; 165
	.db #0xAA	; 170
	.db #0x6D	; 109	'm'
	.db #0x7E	; 126
	.db #0x2A	; 42
	.db #0x6C	; 108	'l'
	.db #0x2F	; 47
	.db #0x01	; 1
	.db #0xB1	; 177
	.db #0xBE	; 190
	.db #0x2F	; 47
	.db #0x01	; 1
	.db #0xAD	; 173
	.db #0xAF	; 175
	.db #0xAD	; 173
	.db #0xBE	; 190
	.db #0x2C	; 44
	.db #0x2A	; 42
	.db #0xED	; 237
	.db #0xAF	; 175
	.db #0xBE	; 190
	.db #0x2D	; 45
	.db #0x2C	; 44
	.db #0xAA	; 170
	.db #0xAC	; 172
	.db #0x41	; 65	'A'
	.db #0x3F	; 63
	.db #0x01	; 1
	.db #0x2D	; 45
	.db #0x41	; 65	'A'
	.db #0x2D	; 45
	.db #0x01	; 1
	.db #0x2D	; 45
	.db #0x6F	; 111	'o'
	.db #0xAC	; 172
	.db #0x68	; 104	'h'
	.db #0x2D	; 45
	.db #0x01	; 1
	.db #0x2D	; 45
	.db #0x01	; 1
	.db #0x2A	; 42
	.db #0x2D	; 45
	.db #0x72	; 114	'r'
	.db #0x2F	; 47
	.db #0x01	; 1
	.db #0x2F	; 47
	.db #0x01	; 1
	.db #0x2C	; 44
	.db #0x2F	; 47
	.db #0x74	; 116	't'
	.db #0x41	; 65	'A'
	.db #0x2D	; 45
	.db #0x41	; 65	'A'
	.db #0x2D	; 45
	.db #0x01	; 1
	.db #0x2D	; 45
	.db #0x6F	; 111	'o'
	.db #0xAC	; 172
	.db #0x68	; 104	'h'
	.db #0x6D	; 109	'm'
	.db #0x7E	; 126
	.db #0x2D	; 45
	.db #0xB4	; 180
	.db #0x73	; 115	's'
	.db #0x7E	; 126
	.db #0x33	; 51	'3'
	.db #0xB6	; 182
	.db #0x41	; 65	'A'
	.db #0x2D	; 45
	.db #0x41	; 65	'A'
	.db #0x2D	; 45
	.db #0x01	; 1
	.db #0x2D	; 45
	.db #0x6F	; 111	'o'
	.db #0xAC	; 172
	.db #0x68	; 104	'h'
	.db #0x2D	; 45
	.db #0x01	; 1
	.db #0x2D	; 45
	.db #0x01	; 1
	.db #0x2A	; 42
	.db #0x2D	; 45
	.db #0x72	; 114	'r'
	.db #0x2F	; 47
	.db #0x01	; 1
	.db #0x2F	; 47
	.db #0x01	; 1
	.db #0x2C	; 44
	.db #0x2F	; 47
	.db #0x74	; 116	't'
	.db #0x41	; 65	'A'
	.db #0x2D	; 45
	.db #0x41	; 65	'A'
	.db #0x2D	; 45
	.db #0x01	; 1
	.db #0x2D	; 45
	.db #0x6F	; 111	'o'
	.db #0x3F	; 63
	.db #0x03	; 3
	.db #0x6D	; 109	'm'
	.db #0x6C	; 108	'l'
	.db #0x68	; 104	'h'
	.db #0x3F	; 63
	.db #0x04	; 4
	.db #0x2A	; 42
	.db #0x2C	; 44
	.db #0x2D	; 45
	.db #0x2F	; 47
	.db #0x31	; 49	'1'
	.db #0x2F	; 47
	.db #0x2D	; 45
	.db #0x2C	; 44
	.db #0x2A	; 42
	.db #0x2C	; 44
	.db #0x2D	; 45
	.db #0x2F	; 47
	.db #0x31	; 49	'1'
	.db #0x2F	; 47
	.db #0x2D	; 45
	.db #0x2A	; 42
	.db #0x3F	; 63
	.db #0x03	; 3
	.db #0xAF	; 175
	.db #0xAD	; 173
	.db #0xAC	; 172
	.db #0xA9	; 169
	.db #0x00	; 0
	.db #0x3F	; 63
	.db #0x03	; 3
	.db #0x2D	; 45
	.db #0x01	; 1
	.db #0x2A	; 42
	.db #0x2A	; 42
	.db #0x6A	; 106	'j'
	.db #0x2C	; 44
	.db #0x01	; 1
	.db #0x2A	; 42
	.db #0x2A	; 42
	.db #0x6A	; 106	'j'
	.db #0x6D	; 109	'm'
	.db #0x6F	; 111	'o'
	.db #0x2D	; 45
	.db #0x01	; 1
	.db #0x2A	; 42
	.db #0x2A	; 42
	.db #0x6A	; 106	'j'
	.db #0x2C	; 44
	.db #0x01	; 1
	.db #0x2A	; 42
	.db #0x2A	; 42
	.db #0x6A	; 106	'j'
	.db #0x68	; 104	'h'
	.db #0x6A	; 106	'j'
	.db #0x2D	; 45
	.db #0x01	; 1
	.db #0x2A	; 42
	.db #0x2A	; 42
	.db #0x6A	; 106	'j'
	.db #0x6C	; 108	'l'
	.db #0x2A	; 42
	.db #0x2A	; 42
	.db #0x6A	; 106	'j'
	.db #0x6D	; 109	'm'
	.db #0x6F	; 111	'o'
	.db #0x2D	; 45
	.db #0x01	; 1
	.db #0x25	; 37
	.db #0x25	; 37
	.db #0x65	; 101	'e'
	.db #0x6F	; 111	'o'
	.db #0x25	; 37
	.db #0x25	; 37
	.db #0x65	; 101	'e'
	.db #0xB1	; 177
	.db #0x3F	; 63
	.db #0x00	; 0
	.db #0xA1	; 161
	.db #0x3F	; 63
	.db #0x03	; 3
	.db #0xA5	; 165
	.db #0xAA	; 170
	.db #0x28	; 40
	.db #0x01	; 1
	.db #0x23	; 35
	.db #0x01	; 1
	.db #0xA5	; 165
	.db #0xBE	; 190
	.db #0xAA	; 170
	.db #0xBE	; 190
	.db #0xAD	; 173
	.db #0x27	; 39
	.db #0x01	; 1
	.db #0xE7	; 231
	.db #0x41	; 65	'A'
	.db #0x25	; 37
	.db #0x25	; 37
	.db #0x65	; 101	'e'
	.db #0x1E	; 30
	.db #0x1E	; 30
	.db #0x5E	; 94
	.db #0x1E	; 30
	.db #0x1E	; 30
	.db #0x5E	; 94
	.db #0x5E	; 94
	.db #0x5E	; 94
	.db #0x81	; 129
	.db #0xA1	; 161
	.db #0xA5	; 165
	.db #0x6A	; 106	'j'
	.db #0x23	; 35
	.db #0x01	; 1
	.db #0x25	; 37
	.db #0x01	; 1
	.db #0x28	; 40
	.db #0x01	; 1
	.db #0xAA	; 170
	.db #0xBE	; 190
	.db #0xA5	; 165
	.db #0xBE	; 190
	.db #0xB1	; 177
	.db #0x5E	; 94
	.db #0x1E	; 30
	.db #0x1C	; 28
	.db #0x1E	; 30
	.db #0x1C	; 28
	.db #0x1E	; 30
	.db #0x20	; 32
	.db #0x61	; 97	'a'
	.db #0x21	; 33
	.db #0x20	; 32
	.db #0x21	; 33
	.db #0x20	; 32
	.db #0x21	; 33
	.db #0x23	; 35
	.db #0x65	; 101	'e'
	.db #0x25	; 37
	.db #0x23	; 35
	.db #0x25	; 37
	.db #0x23	; 35
	.db #0x25	; 37
	.db #0x27	; 39
	.db #0x68	; 104	'h'
	.db #0x28	; 40
	.db #0x27	; 39
	.db #0x28	; 40
	.db #0x27	; 39
	.db #0x28	; 40
	.db #0x2A	; 42
	.db #0x3F	; 63
	.db #0x00	; 0
	.db #0xA1	; 161
	.db #0x3F	; 63
	.db #0x03	; 3
	.db #0xA5	; 165
	.db #0xAA	; 170
	.db #0x28	; 40
	.db #0x01	; 1
	.db #0x23	; 35
	.db #0x01	; 1
	.db #0xA5	; 165
	.db #0xBE	; 190
	.db #0xAA	; 170
	.db #0xBE	; 190
	.db #0xAD	; 173
	.db #0x27	; 39
	.db #0x01	; 1
	.db #0xE7	; 231
	.db #0x41	; 65	'A'
	.db #0x25	; 37
	.db #0x25	; 37
	.db #0x65	; 101	'e'
	.db #0x1E	; 30
	.db #0x1E	; 30
	.db #0x5E	; 94
	.db #0x1E	; 30
	.db #0x1E	; 30
	.db #0x5E	; 94
	.db #0x5E	; 94
	.db #0x5E	; 94
	.db #0x81	; 129
	.db #0xA1	; 161
	.db #0xA5	; 165
	.db #0x6A	; 106	'j'
	.db #0x7E	; 126
	.db #0x25	; 37
	.db #0x68	; 104	'h'
	.db #0x2C	; 44
	.db #0x01	; 1
	.db #0xAD	; 173
	.db #0xBE	; 190
	.db #0x2C	; 44
	.db #0x01	; 1
	.db #0xAA	; 170
	.db #0xAC	; 172
	.db #0xAA	; 170
	.db #0xBE	; 190
	.db #0x28	; 40
	.db #0x26	; 38
	.db #0xEA	; 234
	.db #0xAC	; 172
	.db #0xBE	; 190
	.db #0x2A	; 42
	.db #0x28	; 40
	.db #0xA5	; 165
	.db #0xA8	; 168
	.db #0x41	; 65	'A'
	.db #0x3F	; 63
	.db #0x01	; 1
	.db #0x2A	; 42
	.db #0x41	; 65	'A'
	.db #0x2A	; 42
	.db #0x01	; 1
	.db #0x2A	; 42
	.db #0x6C	; 108	'l'
	.db #0xA8	; 168
	.db #0x65	; 101	'e'
	.db #0x2A	; 42
	.db #0x01	; 1
	.db #0x2A	; 42
	.db #0x01	; 1
	.db #0x26	; 38
	.db #0x2A	; 42
	.db #0x6D	; 109	'm'
	.db #0x2C	; 44
	.db #0x01	; 1
	.db #0x2C	; 44
	.db #0x01	; 1
	.db #0x28	; 40
	.db #0x2C	; 44
	.db #0x6F	; 111	'o'
	.db #0x41	; 65	'A'
	.db #0x2A	; 42
	.db #0x41	; 65	'A'
	.db #0x2A	; 42
	.db #0x01	; 1
	.db #0x2A	; 42
	.db #0x6C	; 108	'l'
	.db #0xA8	; 168
	.db #0x65	; 101	'e'
	.db #0x68	; 104	'h'
	.db #0x7E	; 126
	.db #0x28	; 40
	.db #0xB1	; 177
	.db #0x6F	; 111	'o'
	.db #0x7E	; 126
	.db #0x2F	; 47
	.db #0xB3	; 179
	.db #0x41	; 65	'A'
	.db #0x2A	; 42
	.db #0x41	; 65	'A'
	.db #0x2A	; 42
	.db #0x01	; 1
	.db #0x2A	; 42
	.db #0x6C	; 108	'l'
	.db #0xA8	; 168
	.db #0x65	; 101	'e'
	.db #0x2A	; 42
	.db #0x01	; 1
	.db #0x2A	; 42
	.db #0x01	; 1
	.db #0x26	; 38
	.db #0x2A	; 42
	.db #0x6D	; 109	'm'
	.db #0x2C	; 44
	.db #0x01	; 1
	.db #0x2C	; 44
	.db #0x01	; 1
	.db #0x28	; 40
	.db #0x2C	; 44
	.db #0x6F	; 111	'o'
	.db #0x41	; 65	'A'
	.db #0x2A	; 42
	.db #0x41	; 65	'A'
	.db #0x2A	; 42
	.db #0x01	; 1
	.db #0x2A	; 42
	.db #0x6C	; 108	'l'
	.db #0x3F	; 63
	.db #0x03	; 3
	.db #0x6A	; 106	'j'
	.db #0x68	; 104	'h'
	.db #0x65	; 101	'e'
	.db #0x01	; 1
	.db #0x3F	; 63
	.db #0x04	; 4
	.db #0x2A	; 42
	.db #0x2C	; 44
	.db #0x2D	; 45
	.db #0x2F	; 47
	.db #0x31	; 49	'1'
	.db #0x2F	; 47
	.db #0x2D	; 45
	.db #0x2C	; 44
	.db #0x2A	; 42
	.db #0x2C	; 44
	.db #0x2D	; 45
	.db #0x2F	; 47
	.db #0x31	; 49	'1'
	.db #0x2F	; 47
	.db #0x2D	; 45
	.db #0x3F	; 63
	.db #0x03	; 3
	.db #0xAC	; 172
	.db #0xAA	; 170
	.db #0xA9	; 169
	.db #0xA5	; 165
	.db #0x00	; 0
	.db #0x7F	; 127
	.db #0x80	; 128
	.db #0xBE	; 190
	.db #0x7F	; 127
	.db #0x80	; 128
	.db #0xBE	; 190
	.db #0x7F	; 127
	.db #0x81	; 129
	.db #0x7F	; 127
	.db #0x80	; 128
	.db #0xBE	; 190
	.db #0x7F	; 127
	.db #0x80	; 128
	.db #0xBE	; 190
	.db #0x7F	; 127
	.db #0x41	; 65	'A'
	.db #0x7F	; 127
	.db #0x40	; 64
	.db #0x7F	; 127
	.db #0x80	; 128
	.db #0xBE	; 190
	.db #0x7F	; 127
	.db #0x80	; 128
	.db #0x7F	; 127
	.db #0x40	; 64
	.db #0x7F	; 127
	.db #0x81	; 129
	.db #0x7F	; 127
	.db #0x80	; 128
	.db #0xBE	; 190
	.db #0x7F	; 127
	.db #0x80	; 128
	.db #0xBE	; 190
	.db #0x7F	; 127
	.db #0x01	; 1
	.db #0x7F	; 127
	.db #0x01	; 1
	.db #0x7F	; 127
	.db #0x41	; 65	'A'
	.db #0x7F	; 127
	.db #0x80	; 128
	.db #0xBE	; 190
	.db #0x7F	; 127
	.db #0x40	; 64
	.db #0x7F	; 127
	.db #0x80	; 128
	.db #0x7F	; 127
	.db #0x81	; 129
	.db #0x7F	; 127
	.db #0x80	; 128
	.db #0xBE	; 190
	.db #0x7F	; 127
	.db #0x40	; 64
	.db #0x7F	; 127
	.db #0x80	; 128
	.db #0x7F	; 127
	.db #0x81	; 129
	.db #0x7F	; 127
	.db #0x40	; 64
	.db #0x7F	; 127
	.db #0x80	; 128
	.db #0x7F	; 127
	.db #0x40	; 64
	.db #0x7F	; 127
	.db #0x80	; 128
	.db #0x7F	; 127
	.db #0x81	; 129
	.db #0x7F	; 127
	.db #0x40	; 64
	.db #0x7F	; 127
	.db #0x80	; 128
	.db #0x7F	; 127
	.db #0x40	; 64
	.db #0x7F	; 127
	.db #0x80	; 128
	.db #0x7F	; 127
	.db #0x01	; 1
	.db #0x7F	; 127
	.db #0x01	; 1
	.db #0x7F	; 127
	.db #0x41	; 65	'A'
	.db #0x7F	; 127
	.db #0x80	; 128
	.db #0xBE	; 190
	.db #0x7F	; 127
	.db #0x40	; 64
	.db #0x7F	; 127
	.db #0x80	; 128
	.db #0x7F	; 127
	.db #0x81	; 129
	.db #0x7F	; 127
	.db #0x80	; 128
	.db #0xBE	; 190
	.db #0x7F	; 127
	.db #0x40	; 64
	.db #0x7F	; 127
	.db #0x80	; 128
	.db #0x7F	; 127
	.db #0x81	; 129
	.db #0x7F	; 127
	.db #0x40	; 64
	.db #0x7F	; 127
	.db #0x80	; 128
	.db #0x7F	; 127
	.db #0x40	; 64
	.db #0x7F	; 127
	.db #0x80	; 128
	.db #0x7F	; 127
	.db #0x81	; 129
	.db #0x7F	; 127
	.db #0x40	; 64
	.db #0x7F	; 127
	.db #0x80	; 128
	.db #0x7F	; 127
	.db #0x40	; 64
	.db #0x7F	; 127
	.db #0x80	; 128
	.db #0x7F	; 127
	.db #0x41	; 65	'A'
	.db #0x7F	; 127
	.db #0x41	; 65	'A'
	.db #0x7F	; 127
	.db #0x80	; 128
	.db #0xBE	; 190
	.db #0x7F	; 127
	.db #0x40	; 64
	.db #0x7F	; 127
	.db #0x80	; 128
	.db #0x7F	; 127
	.db #0x81	; 129
	.db #0x7F	; 127
	.db #0x80	; 128
	.db #0xBE	; 190
	.db #0x7F	; 127
	.db #0x40	; 64
	.db #0x7F	; 127
	.db #0x80	; 128
	.db #0x7F	; 127
	.db #0x81	; 129
	.db #0x7F	; 127
	.db #0x40	; 64
	.db #0x7F	; 127
	.db #0x80	; 128
	.db #0x7F	; 127
	.db #0x40	; 64
	.db #0x7F	; 127
	.db #0x80	; 128
	.db #0x7F	; 127
	.db #0x81	; 129
	.db #0x7F	; 127
	.db #0x40	; 64
	.db #0x7F	; 127
	.db #0x80	; 128
	.db #0x7F	; 127
	.db #0x40	; 64
	.db #0x7F	; 127
	.db #0x80	; 128
	.db #0x7F	; 127
	.db #0x01	; 1
	.db #0x7F	; 127
	.db #0x01	; 1
	.db #0x7F	; 127
	.db #0x41	; 65	'A'
	.db #0x7F	; 127
	.db #0x80	; 128
	.db #0xBE	; 190
	.db #0x7F	; 127
	.db #0x40	; 64
	.db #0x7F	; 127
	.db #0x80	; 128
	.db #0x7F	; 127
	.db #0x81	; 129
	.db #0x7F	; 127
	.db #0x80	; 128
	.db #0xBE	; 190
	.db #0x7F	; 127
	.db #0x40	; 64
	.db #0x7F	; 127
	.db #0x80	; 128
	.db #0x7F	; 127
	.db #0x81	; 129
	.db #0x7F	; 127
	.db #0x40	; 64
	.db #0x7F	; 127
	.db #0x80	; 128
	.db #0x7F	; 127
	.db #0x40	; 64
	.db #0x7F	; 127
	.db #0x80	; 128
	.db #0x7F	; 127
	.db #0x81	; 129
	.db #0x7F	; 127
	.db #0x40	; 64
	.db #0x7F	; 127
	.db #0x80	; 128
	.db #0x7F	; 127
	.db #0x40	; 64
	.db #0x7F	; 127
	.db #0x01	; 1
	.db #0x7F	; 127
	.db #0x01	; 1
	.db #0x7F	; 127
	.db #0x41	; 65	'A'
	.db #0x7F	; 127
	.db #0x01	; 1
	.db #0x7F	; 127
	.db #0x01	; 1
	.db #0x7F	; 127
	.db #0x41	; 65	'A'
	.db #0x7F	; 127
	.db #0x00	; 0
	.db #0x7F	; 127
	.db #0x40	; 64
	.db #0x7E	; 126
	.db #0x7F	; 127
	.db #0x41	; 65	'A'
	.db #0x7F	; 127
	.db #0x80	; 128
	.db #0x7F	; 127
	.db #0x40	; 64
	.db #0x7F	; 127
	.db #0x81	; 129
	.db #0x7F	; 127
	.db #0x40	; 64
	.db #0x7F	; 127
	.db #0x40	; 64
	.db #0x7F	; 127
	.db #0x41	; 65	'A'
	.db #0x7F	; 127
	.db #0x80	; 128
	.db #0x7F	; 127
	.db #0x40	; 64
	.db #0x7F	; 127
	.db #0x81	; 129
	.db #0x7F	; 127
	.db #0x00	; 0
	.db #0x7F	; 127
	.db #0x40	; 64
	.db #0x7E	; 126
	.db #0x7F	; 127
	.db #0x41	; 65	'A'
	.db #0x7F	; 127
	.db #0x80	; 128
	.db #0x7F	; 127
	.db #0x40	; 64
	.db #0x7F	; 127
	.db #0x81	; 129
	.db #0x7F	; 127
	.db #0x40	; 64
	.db #0x7F	; 127
	.db #0x40	; 64
	.db #0x7F	; 127
	.db #0x41	; 65	'A'
	.db #0x7F	; 127
	.db #0x80	; 128
	.db #0x7F	; 127
	.db #0x40	; 64
	.db #0x7F	; 127
	.db #0x01	; 1
	.db #0x7F	; 127
	.db #0x41	; 65	'A'
	.db #0x7E	; 126
	.db #0x7F	; 127
	.db #0x00	; 0
	.db #0x7F	; 127
	.db #0x40	; 64
	.db #0x7E	; 126
	.db #0x7F	; 127
	.db #0x41	; 65	'A'
	.db #0x7F	; 127
	.db #0x80	; 128
	.db #0x7F	; 127
	.db #0x40	; 64
	.db #0x7F	; 127
	.db #0x81	; 129
	.db #0x7F	; 127
	.db #0x40	; 64
	.db #0x7F	; 127
	.db #0x40	; 64
	.db #0x7F	; 127
	.db #0x41	; 65	'A'
	.db #0x7F	; 127
	.db #0x80	; 128
	.db #0x7F	; 127
	.db #0x40	; 64
	.db #0x7F	; 127
	.db #0x81	; 129
	.db #0x7F	; 127
	.db #0x00	; 0
	.db #0x7F	; 127
	.db #0x40	; 64
	.db #0x7E	; 126
	.db #0x7F	; 127
	.db #0x41	; 65	'A'
	.db #0x7F	; 127
	.db #0x80	; 128
	.db #0x7F	; 127
	.db #0x40	; 64
	.db #0x7F	; 127
	.db #0x81	; 129
	.db #0x7F	; 127
	.db #0x40	; 64
	.db #0x7F	; 127
	.db #0x40	; 64
	.db #0x7F	; 127
	.db #0x41	; 65	'A'
	.db #0x7F	; 127
	.db #0x80	; 128
	.db #0x7F	; 127
	.db #0x40	; 64
	.db #0x7F	; 127
	.db #0x01	; 1
	.db #0x7F	; 127
	.db #0x41	; 65	'A'
	.db #0x7E	; 126
	.db #0x7F	; 127
	.db #0x41	; 65	'A'
	.db #0x7F	; 127
	.db #0x40	; 64
	.db #0x7F	; 127
	.db #0x41	; 65	'A'
	.db #0x7F	; 127
	.db #0x40	; 64
	.db #0x7F	; 127
	.db #0x01	; 1
	.db #0x7F	; 127
	.db #0x01	; 1
	.db #0x7F	; 127
	.db #0x41	; 65	'A'
	.db #0x7F	; 127
	.db #0x01	; 1
	.db #0x7F	; 127
	.db #0x01	; 1
	.db #0x7F	; 127
	.db #0x01	; 1
	.db #0x7F	; 127
	.db #0x01	; 1
	.db #0x00	; 0
	.db #0x00	; 0
_SONG_1:
	.db #0x04	; 4
	.db #0x07	; 7
	.db #0x00	; 0
	.db #0x00	; 0
	.db #0x3F	; 63
	.db #0x02	; 2
	.db #0x4E	; 78	'N'
	.db #0x4E	; 78	'N'
	.db #0x55	; 85	'U'
	.db #0x52	; 82	'R'
	.db #0x55	; 85	'U'
	.db #0x51	; 81	'Q'
	.db #0x50	; 80	'P'
	.db #0x51	; 81	'Q'
	.db #0x4E	; 78	'N'
	.db #0x4E	; 78	'N'
	.db #0x55	; 85	'U'
	.db #0x52	; 82	'R'
	.db #0x55	; 85	'U'
	.db #0x50	; 80	'P'
	.db #0x51	; 81	'Q'
	.db #0x52	; 82	'R'
	.db #0x4E	; 78	'N'
	.db #0x4E	; 78	'N'
	.db #0x55	; 85	'U'
	.db #0x52	; 82	'R'
	.db #0x55	; 85	'U'
	.db #0x51	; 81	'Q'
	.db #0x50	; 80	'P'
	.db #0x51	; 81	'Q'
	.db #0x4E	; 78	'N'
	.db #0x4E	; 78	'N'
	.db #0x55	; 85	'U'
	.db #0x52	; 82	'R'
	.db #0x55	; 85	'U'
	.db #0x50	; 80	'P'
	.db #0x51	; 81	'Q'
	.db #0x52	; 82	'R'
	.db #0x4E	; 78	'N'
	.db #0x4E	; 78	'N'
	.db #0x55	; 85	'U'
	.db #0x52	; 82	'R'
	.db #0x55	; 85	'U'
	.db #0x51	; 81	'Q'
	.db #0x50	; 80	'P'
	.db #0x51	; 81	'Q'
	.db #0x4E	; 78	'N'
	.db #0x4E	; 78	'N'
	.db #0x55	; 85	'U'
	.db #0x52	; 82	'R'
	.db #0x55	; 85	'U'
	.db #0x50	; 80	'P'
	.db #0x51	; 81	'Q'
	.db #0x52	; 82	'R'
	.db #0x4E	; 78	'N'
	.db #0x4E	; 78	'N'
	.db #0x55	; 85	'U'
	.db #0x52	; 82	'R'
	.db #0x55	; 85	'U'
	.db #0x51	; 81	'Q'
	.db #0x50	; 80	'P'
	.db #0x51	; 81	'Q'
	.db #0x4E	; 78	'N'
	.db #0x4E	; 78	'N'
	.db #0x55	; 85	'U'
	.db #0x52	; 82	'R'
	.db #0x55	; 85	'U'
	.db #0x50	; 80	'P'
	.db #0x51	; 81	'Q'
	.db #0x52	; 82	'R'
	.db #0x4E	; 78	'N'
	.db #0x4E	; 78	'N'
	.db #0x55	; 85	'U'
	.db #0x52	; 82	'R'
	.db #0x55	; 85	'U'
	.db #0x51	; 81	'Q'
	.db #0x50	; 80	'P'
	.db #0x51	; 81	'Q'
	.db #0x4E	; 78	'N'
	.db #0x4E	; 78	'N'
	.db #0x55	; 85	'U'
	.db #0x52	; 82	'R'
	.db #0x55	; 85	'U'
	.db #0x50	; 80	'P'
	.db #0x51	; 81	'Q'
	.db #0x52	; 82	'R'
	.db #0x4E	; 78	'N'
	.db #0x4E	; 78	'N'
	.db #0x55	; 85	'U'
	.db #0x52	; 82	'R'
	.db #0x55	; 85	'U'
	.db #0x51	; 81	'Q'
	.db #0x50	; 80	'P'
	.db #0x51	; 81	'Q'
	.db #0x4E	; 78	'N'
	.db #0x4E	; 78	'N'
	.db #0x55	; 85	'U'
	.db #0x52	; 82	'R'
	.db #0x55	; 85	'U'
	.db #0x50	; 80	'P'
	.db #0x51	; 81	'Q'
	.db #0x52	; 82	'R'
	.db #0x4E	; 78	'N'
	.db #0x4E	; 78	'N'
	.db #0x55	; 85	'U'
	.db #0x52	; 82	'R'
	.db #0x55	; 85	'U'
	.db #0x51	; 81	'Q'
	.db #0x50	; 80	'P'
	.db #0x51	; 81	'Q'
	.db #0x4E	; 78	'N'
	.db #0x4E	; 78	'N'
	.db #0x55	; 85	'U'
	.db #0x52	; 82	'R'
	.db #0x55	; 85	'U'
	.db #0x50	; 80	'P'
	.db #0x51	; 81	'Q'
	.db #0x52	; 82	'R'
	.db #0x4E	; 78	'N'
	.db #0x4E	; 78	'N'
	.db #0x55	; 85	'U'
	.db #0x52	; 82	'R'
	.db #0x55	; 85	'U'
	.db #0x51	; 81	'Q'
	.db #0x50	; 80	'P'
	.db #0x51	; 81	'Q'
	.db #0x4E	; 78	'N'
	.db #0x4E	; 78	'N'
	.db #0x55	; 85	'U'
	.db #0x52	; 82	'R'
	.db #0x55	; 85	'U'
	.db #0x50	; 80	'P'
	.db #0x51	; 81	'Q'
	.db #0x52	; 82	'R'
	.db #0x4E	; 78	'N'
	.db #0x4E	; 78	'N'
	.db #0x55	; 85	'U'
	.db #0x52	; 82	'R'
	.db #0x55	; 85	'U'
	.db #0x51	; 81	'Q'
	.db #0x50	; 80	'P'
	.db #0x51	; 81	'Q'
	.db #0x4E	; 78	'N'
	.db #0x4E	; 78	'N'
	.db #0x55	; 85	'U'
	.db #0x52	; 82	'R'
	.db #0x55	; 85	'U'
	.db #0x50	; 80	'P'
	.db #0x51	; 81	'Q'
	.db #0x52	; 82	'R'
	.db #0x4E	; 78	'N'
	.db #0x4E	; 78	'N'
	.db #0x55	; 85	'U'
	.db #0x52	; 82	'R'
	.db #0x55	; 85	'U'
	.db #0x51	; 81	'Q'
	.db #0x50	; 80	'P'
	.db #0x51	; 81	'Q'
	.db #0x4E	; 78	'N'
	.db #0x4E	; 78	'N'
	.db #0x55	; 85	'U'
	.db #0x52	; 82	'R'
	.db #0x55	; 85	'U'
	.db #0x50	; 80	'P'
	.db #0x51	; 81	'Q'
	.db #0x52	; 82	'R'
	.db #0x49	; 73	'I'
	.db #0x50	; 80	'P'
	.db #0x4D	; 77	'M'
	.db #0x50	; 80	'P'
	.db #0x49	; 73	'I'
	.db #0x50	; 80	'P'
	.db #0x4D	; 77	'M'
	.db #0x50	; 80	'P'
	.db #0x49	; 73	'I'
	.db #0x50	; 80	'P'
	.db #0x4D	; 77	'M'
	.db #0x50	; 80	'P'
	.db #0x49	; 73	'I'
	.db #0x50	; 80	'P'
	.db #0x4D	; 77	'M'
	.db #0x50	; 80	'P'
	.db #0x4B	; 75	'K'
	.db #0x52	; 82	'R'
	.db #0x4E	; 78	'N'
	.db #0x52	; 82	'R'
	.db #0x4B	; 75	'K'
	.db #0x52	; 82	'R'
	.db #0x4E	; 78	'N'
	.db #0x52	; 82	'R'
	.db #0x4B	; 75	'K'
	.db #0x52	; 82	'R'
	.db #0x4E	; 78	'N'
	.db #0x52	; 82	'R'
	.db #0x4B	; 75	'K'
	.db #0x52	; 82	'R'
	.db #0x4E	; 78	'N'
	.db #0x52	; 82	'R'
	.db #0x49	; 73	'I'
	.db #0x50	; 80	'P'
	.db #0x4D	; 77	'M'
	.db #0x50	; 80	'P'
	.db #0x49	; 73	'I'
	.db #0x50	; 80	'P'
	.db #0x4D	; 77	'M'
	.db #0x50	; 80	'P'
	.db #0x49	; 73	'I'
	.db #0x50	; 80	'P'
	.db #0x4D	; 77	'M'
	.db #0x50	; 80	'P'
	.db #0x49	; 73	'I'
	.db #0x50	; 80	'P'
	.db #0x4D	; 77	'M'
	.db #0x50	; 80	'P'
	.db #0x4B	; 75	'K'
	.db #0x52	; 82	'R'
	.db #0x4E	; 78	'N'
	.db #0x52	; 82	'R'
	.db #0x4B	; 75	'K'
	.db #0x52	; 82	'R'
	.db #0x4E	; 78	'N'
	.db #0x52	; 82	'R'
	.db #0x4B	; 75	'K'
	.db #0x52	; 82	'R'
	.db #0x4E	; 78	'N'
	.db #0x52	; 82	'R'
	.db #0x4B	; 75	'K'
	.db #0x52	; 82	'R'
	.db #0x4E	; 78	'N'
	.db #0x52	; 82	'R'
	.db #0x49	; 73	'I'
	.db #0x50	; 80	'P'
	.db #0x4D	; 77	'M'
	.db #0x50	; 80	'P'
	.db #0x49	; 73	'I'
	.db #0x50	; 80	'P'
	.db #0x4D	; 77	'M'
	.db #0x50	; 80	'P'
	.db #0x49	; 73	'I'
	.db #0x50	; 80	'P'
	.db #0x4D	; 77	'M'
	.db #0x50	; 80	'P'
	.db #0x49	; 73	'I'
	.db #0x50	; 80	'P'
	.db #0x4D	; 77	'M'
	.db #0x50	; 80	'P'
	.db #0x4B	; 75	'K'
	.db #0x52	; 82	'R'
	.db #0x4E	; 78	'N'
	.db #0x52	; 82	'R'
	.db #0x4B	; 75	'K'
	.db #0x52	; 82	'R'
	.db #0x4E	; 78	'N'
	.db #0x52	; 82	'R'
	.db #0x4B	; 75	'K'
	.db #0x52	; 82	'R'
	.db #0x4E	; 78	'N'
	.db #0x52	; 82	'R'
	.db #0x4B	; 75	'K'
	.db #0x52	; 82	'R'
	.db #0x4E	; 78	'N'
	.db #0x52	; 82	'R'
	.db #0x49	; 73	'I'
	.db #0x50	; 80	'P'
	.db #0x4D	; 77	'M'
	.db #0x50	; 80	'P'
	.db #0x49	; 73	'I'
	.db #0x50	; 80	'P'
	.db #0x4D	; 77	'M'
	.db #0x50	; 80	'P'
	.db #0x49	; 73	'I'
	.db #0x50	; 80	'P'
	.db #0x4D	; 77	'M'
	.db #0x50	; 80	'P'
	.db #0x49	; 73	'I'
	.db #0x50	; 80	'P'
	.db #0x4D	; 77	'M'
	.db #0x50	; 80	'P'
	.db #0x4E	; 78	'N'
	.db #0x52	; 82	'R'
	.db #0x55	; 85	'U'
	.db #0x52	; 82	'R'
	.db #0x4E	; 78	'N'
	.db #0x52	; 82	'R'
	.db #0x55	; 85	'U'
	.db #0x52	; 82	'R'
	.db #0x4E	; 78	'N'
	.db #0x52	; 82	'R'
	.db #0x55	; 85	'U'
	.db #0x52	; 82	'R'
	.db #0x4E	; 78	'N'
	.db #0x52	; 82	'R'
	.db #0x55	; 85	'U'
	.db #0x52	; 82	'R'
	.db #0x4E	; 78	'N'
	.db #0x4E	; 78	'N'
	.db #0x55	; 85	'U'
	.db #0x52	; 82	'R'
	.db #0x55	; 85	'U'
	.db #0x51	; 81	'Q'
	.db #0x50	; 80	'P'
	.db #0x51	; 81	'Q'
	.db #0x4E	; 78	'N'
	.db #0x4E	; 78	'N'
	.db #0x55	; 85	'U'
	.db #0x52	; 82	'R'
	.db #0x55	; 85	'U'
	.db #0x50	; 80	'P'
	.db #0x51	; 81	'Q'
	.db #0x52	; 82	'R'
	.db #0x4E	; 78	'N'
	.db #0x4E	; 78	'N'
	.db #0x55	; 85	'U'
	.db #0x52	; 82	'R'
	.db #0x55	; 85	'U'
	.db #0x51	; 81	'Q'
	.db #0x50	; 80	'P'
	.db #0x51	; 81	'Q'
	.db #0x4E	; 78	'N'
	.db #0x4E	; 78	'N'
	.db #0x55	; 85	'U'
	.db #0x52	; 82	'R'
	.db #0x55	; 85	'U'
	.db #0x50	; 80	'P'
	.db #0x51	; 81	'Q'
	.db #0x52	; 82	'R'
	.db #0x4E	; 78	'N'
	.db #0x4E	; 78	'N'
	.db #0x55	; 85	'U'
	.db #0x52	; 82	'R'
	.db #0x55	; 85	'U'
	.db #0x51	; 81	'Q'
	.db #0x50	; 80	'P'
	.db #0x51	; 81	'Q'
	.db #0x4E	; 78	'N'
	.db #0x4E	; 78	'N'
	.db #0x55	; 85	'U'
	.db #0x52	; 82	'R'
	.db #0x55	; 85	'U'
	.db #0x50	; 80	'P'
	.db #0x51	; 81	'Q'
	.db #0x52	; 82	'R'
	.db #0x4E	; 78	'N'
	.db #0x4E	; 78	'N'
	.db #0x55	; 85	'U'
	.db #0x52	; 82	'R'
	.db #0x55	; 85	'U'
	.db #0x51	; 81	'Q'
	.db #0x50	; 80	'P'
	.db #0x51	; 81	'Q'
	.db #0x4E	; 78	'N'
	.db #0x4E	; 78	'N'
	.db #0x55	; 85	'U'
	.db #0x52	; 82	'R'
	.db #0x55	; 85	'U'
	.db #0x50	; 80	'P'
	.db #0x51	; 81	'Q'
	.db #0x52	; 82	'R'
	.db #0x49	; 73	'I'
	.db #0x50	; 80	'P'
	.db #0x4D	; 77	'M'
	.db #0x50	; 80	'P'
	.db #0x49	; 73	'I'
	.db #0x50	; 80	'P'
	.db #0x4D	; 77	'M'
	.db #0x50	; 80	'P'
	.db #0x49	; 73	'I'
	.db #0x50	; 80	'P'
	.db #0x4D	; 77	'M'
	.db #0x50	; 80	'P'
	.db #0x49	; 73	'I'
	.db #0x50	; 80	'P'
	.db #0x4D	; 77	'M'
	.db #0x50	; 80	'P'
	.db #0x4B	; 75	'K'
	.db #0x52	; 82	'R'
	.db #0x4E	; 78	'N'
	.db #0x52	; 82	'R'
	.db #0x4B	; 75	'K'
	.db #0x52	; 82	'R'
	.db #0x4E	; 78	'N'
	.db #0x52	; 82	'R'
	.db #0x4B	; 75	'K'
	.db #0x52	; 82	'R'
	.db #0x4E	; 78	'N'
	.db #0x52	; 82	'R'
	.db #0x4B	; 75	'K'
	.db #0x52	; 82	'R'
	.db #0x4E	; 78	'N'
	.db #0x52	; 82	'R'
	.db #0x49	; 73	'I'
	.db #0x50	; 80	'P'
	.db #0x4D	; 77	'M'
	.db #0x50	; 80	'P'
	.db #0x49	; 73	'I'
	.db #0x50	; 80	'P'
	.db #0x4D	; 77	'M'
	.db #0x50	; 80	'P'
	.db #0x49	; 73	'I'
	.db #0x50	; 80	'P'
	.db #0x4D	; 77	'M'
	.db #0x50	; 80	'P'
	.db #0x49	; 73	'I'
	.db #0x50	; 80	'P'
	.db #0x4D	; 77	'M'
	.db #0x50	; 80	'P'
	.db #0x4B	; 75	'K'
	.db #0x52	; 82	'R'
	.db #0x4E	; 78	'N'
	.db #0x52	; 82	'R'
	.db #0x4B	; 75	'K'
	.db #0x52	; 82	'R'
	.db #0x4E	; 78	'N'
	.db #0x52	; 82	'R'
	.db #0x4B	; 75	'K'
	.db #0x52	; 82	'R'
	.db #0x4E	; 78	'N'
	.db #0x52	; 82	'R'
	.db #0x4B	; 75	'K'
	.db #0x52	; 82	'R'
	.db #0x4E	; 78	'N'
	.db #0x52	; 82	'R'
	.db #0x49	; 73	'I'
	.db #0x50	; 80	'P'
	.db #0x4D	; 77	'M'
	.db #0x50	; 80	'P'
	.db #0x49	; 73	'I'
	.db #0x50	; 80	'P'
	.db #0x4D	; 77	'M'
	.db #0x50	; 80	'P'
	.db #0x49	; 73	'I'
	.db #0x50	; 80	'P'
	.db #0x4D	; 77	'M'
	.db #0x50	; 80	'P'
	.db #0x49	; 73	'I'
	.db #0x50	; 80	'P'
	.db #0x4D	; 77	'M'
	.db #0x50	; 80	'P'
	.db #0x4B	; 75	'K'
	.db #0x52	; 82	'R'
	.db #0x4E	; 78	'N'
	.db #0x52	; 82	'R'
	.db #0x4B	; 75	'K'
	.db #0x52	; 82	'R'
	.db #0x4E	; 78	'N'
	.db #0x52	; 82	'R'
	.db #0x4B	; 75	'K'
	.db #0x52	; 82	'R'
	.db #0x4E	; 78	'N'
	.db #0x52	; 82	'R'
	.db #0x4B	; 75	'K'
	.db #0x52	; 82	'R'
	.db #0x4E	; 78	'N'
	.db #0x52	; 82	'R'
	.db #0x49	; 73	'I'
	.db #0x50	; 80	'P'
	.db #0x4D	; 77	'M'
	.db #0x50	; 80	'P'
	.db #0x49	; 73	'I'
	.db #0x50	; 80	'P'
	.db #0x4D	; 77	'M'
	.db #0x50	; 80	'P'
	.db #0x49	; 73	'I'
	.db #0x50	; 80	'P'
	.db #0x4D	; 77	'M'
	.db #0x50	; 80	'P'
	.db #0x49	; 73	'I'
	.db #0x50	; 80	'P'
	.db #0x4D	; 77	'M'
	.db #0x50	; 80	'P'
	.db #0x4E	; 78	'N'
	.db #0x52	; 82	'R'
	.db #0x55	; 85	'U'
	.db #0x52	; 82	'R'
	.db #0x4E	; 78	'N'
	.db #0x52	; 82	'R'
	.db #0x55	; 85	'U'
	.db #0x52	; 82	'R'
	.db #0x4E	; 78	'N'
	.db #0x52	; 82	'R'
	.db #0x55	; 85	'U'
	.db #0x52	; 82	'R'
	.db #0x4E	; 78	'N'
	.db #0x52	; 82	'R'
	.db #0x55	; 85	'U'
	.db #0x52	; 82	'R'
	.db #0x4E	; 78	'N'
	.db #0x4E	; 78	'N'
	.db #0x55	; 85	'U'
	.db #0x52	; 82	'R'
	.db #0x55	; 85	'U'
	.db #0x51	; 81	'Q'
	.db #0x50	; 80	'P'
	.db #0x51	; 81	'Q'
	.db #0x4E	; 78	'N'
	.db #0x4E	; 78	'N'
	.db #0x55	; 85	'U'
	.db #0x52	; 82	'R'
	.db #0x55	; 85	'U'
	.db #0x50	; 80	'P'
	.db #0x51	; 81	'Q'
	.db #0x52	; 82	'R'
	.db #0x00	; 0
	.db #0x3F	; 63
	.db #0x00	; 0
	.db #0xC1	; 193
	.db #0xFE	; 254
	.db #0xFE	; 254
	.db #0xFE	; 254
	.db #0xFE	; 254
	.db #0xFE	; 254
	.db #0xFE	; 254
	.db #0xC1	; 193
	.db #0xFE	; 254
	.db #0xFE	; 254
	.db #0xFE	; 254
	.db #0xFE	; 254
	.db #0xFE	; 254
	.db #0xFE	; 254
	.db #0xA6	; 166
	.db #0xA6	; 166
	.db #0x66	; 102	'f'
	.db #0x61	; 97	'a'
	.db #0x63	; 99	'c'
	.db #0xA6	; 166
	.db #0xA6	; 166
	.db #0x66	; 102	'f'
	.db #0x69	; 105	'i'
	.db #0x6A	; 106	'j'
	.db #0x69	; 105	'i'
	.db #0x6A	; 106	'j'
	.db #0xA6	; 166
	.db #0xA6	; 166
	.db #0x66	; 102	'f'
	.db #0x61	; 97	'a'
	.db #0x63	; 99	'c'
	.db #0xA6	; 166
	.db #0xA6	; 166
	.db #0x66	; 102	'f'
	.db #0x6D	; 109	'm'
	.db #0x6A	; 106	'j'
	.db #0x6D	; 109	'm'
	.db #0x6A	; 106	'j'
	.db #0xA6	; 166
	.db #0xA6	; 166
	.db #0x66	; 102	'f'
	.db #0x61	; 97	'a'
	.db #0x63	; 99	'c'
	.db #0xA6	; 166
	.db #0xA6	; 166
	.db #0x66	; 102	'f'
	.db #0x69	; 105	'i'
	.db #0x6A	; 106	'j'
	.db #0x69	; 105	'i'
	.db #0x6A	; 106	'j'
	.db #0xA6	; 166
	.db #0xA6	; 166
	.db #0x66	; 102	'f'
	.db #0x61	; 97	'a'
	.db #0x63	; 99	'c'
	.db #0xA6	; 166
	.db #0xA6	; 166
	.db #0x66	; 102	'f'
	.db #0x6D	; 109	'm'
	.db #0x6A	; 106	'j'
	.db #0x6D	; 109	'm'
	.db #0x6A	; 106	'j'
	.db #0x3F	; 63
	.db #0x03	; 3
	.db #0xA6	; 166
	.db #0xA6	; 166
	.db #0x66	; 102	'f'
	.db #0x61	; 97	'a'
	.db #0x63	; 99	'c'
	.db #0xA6	; 166
	.db #0xA6	; 166
	.db #0x66	; 102	'f'
	.db #0x69	; 105	'i'
	.db #0x6A	; 106	'j'
	.db #0x69	; 105	'i'
	.db #0x6A	; 106	'j'
	.db #0xA6	; 166
	.db #0xA6	; 166
	.db #0x66	; 102	'f'
	.db #0x61	; 97	'a'
	.db #0x63	; 99	'c'
	.db #0xA6	; 166
	.db #0xA6	; 166
	.db #0x66	; 102	'f'
	.db #0x6D	; 109	'm'
	.db #0x6A	; 106	'j'
	.db #0x6D	; 109	'm'
	.db #0x6A	; 106	'j'
	.db #0xA6	; 166
	.db #0xA6	; 166
	.db #0x66	; 102	'f'
	.db #0x61	; 97	'a'
	.db #0x63	; 99	'c'
	.db #0xA6	; 166
	.db #0xA6	; 166
	.db #0x66	; 102	'f'
	.db #0x69	; 105	'i'
	.db #0x6A	; 106	'j'
	.db #0x69	; 105	'i'
	.db #0x6A	; 106	'j'
	.db #0x3F	; 63
	.db #0x00	; 0
	.db #0xA6	; 166
	.db #0xA6	; 166
	.db #0x66	; 102	'f'
	.db #0x61	; 97	'a'
	.db #0x63	; 99	'c'
	.db #0xA6	; 166
	.db #0xA6	; 166
	.db #0x66	; 102	'f'
	.db #0x6D	; 109	'm'
	.db #0x6A	; 106	'j'
	.db #0x6D	; 109	'm'
	.db #0x6A	; 106	'j'
	.db #0x49	; 73	'I'
	.db #0x55	; 85	'U'
	.db #0x55	; 85	'U'
	.db #0x55	; 85	'U'
	.db #0x49	; 73	'I'
	.db #0x55	; 85	'U'
	.db #0x55	; 85	'U'
	.db #0x55	; 85	'U'
	.db #0x49	; 73	'I'
	.db #0x55	; 85	'U'
	.db #0x49	; 73	'I'
	.db #0x55	; 85	'U'
	.db #0x49	; 73	'I'
	.db #0x4D	; 77	'M'
	.db #0x50	; 80	'P'
	.db #0x55	; 85	'U'
	.db #0x4B	; 75	'K'
	.db #0x57	; 87	'W'
	.db #0x57	; 87	'W'
	.db #0x57	; 87	'W'
	.db #0x4B	; 75	'K'
	.db #0x57	; 87	'W'
	.db #0x57	; 87	'W'
	.db #0x57	; 87	'W'
	.db #0x4B	; 75	'K'
	.db #0x57	; 87	'W'
	.db #0x4B	; 75	'K'
	.db #0x57	; 87	'W'
	.db #0x4B	; 75	'K'
	.db #0x4E	; 78	'N'
	.db #0x52	; 82	'R'
	.db #0x57	; 87	'W'
	.db #0x49	; 73	'I'
	.db #0x55	; 85	'U'
	.db #0x55	; 85	'U'
	.db #0x55	; 85	'U'
	.db #0x49	; 73	'I'
	.db #0x55	; 85	'U'
	.db #0x55	; 85	'U'
	.db #0x55	; 85	'U'
	.db #0x49	; 73	'I'
	.db #0x55	; 85	'U'
	.db #0x49	; 73	'I'
	.db #0x55	; 85	'U'
	.db #0x49	; 73	'I'
	.db #0x4D	; 77	'M'
	.db #0x50	; 80	'P'
	.db #0x55	; 85	'U'
	.db #0x4B	; 75	'K'
	.db #0x57	; 87	'W'
	.db #0x57	; 87	'W'
	.db #0x57	; 87	'W'
	.db #0x4B	; 75	'K'
	.db #0x57	; 87	'W'
	.db #0x57	; 87	'W'
	.db #0x57	; 87	'W'
	.db #0x4B	; 75	'K'
	.db #0x57	; 87	'W'
	.db #0x4B	; 75	'K'
	.db #0x57	; 87	'W'
	.db #0x4B	; 75	'K'
	.db #0x4E	; 78	'N'
	.db #0x52	; 82	'R'
	.db #0x57	; 87	'W'
	.db #0x49	; 73	'I'
	.db #0x55	; 85	'U'
	.db #0x55	; 85	'U'
	.db #0x55	; 85	'U'
	.db #0x49	; 73	'I'
	.db #0x55	; 85	'U'
	.db #0x55	; 85	'U'
	.db #0x55	; 85	'U'
	.db #0x49	; 73	'I'
	.db #0x55	; 85	'U'
	.db #0x49	; 73	'I'
	.db #0x55	; 85	'U'
	.db #0x49	; 73	'I'
	.db #0x4D	; 77	'M'
	.db #0x50	; 80	'P'
	.db #0x55	; 85	'U'
	.db #0x4B	; 75	'K'
	.db #0x57	; 87	'W'
	.db #0x57	; 87	'W'
	.db #0x57	; 87	'W'
	.db #0x4B	; 75	'K'
	.db #0x57	; 87	'W'
	.db #0x57	; 87	'W'
	.db #0x57	; 87	'W'
	.db #0x4B	; 75	'K'
	.db #0x57	; 87	'W'
	.db #0x4B	; 75	'K'
	.db #0x57	; 87	'W'
	.db #0x4B	; 75	'K'
	.db #0x4E	; 78	'N'
	.db #0x52	; 82	'R'
	.db #0x57	; 87	'W'
	.db #0x49	; 73	'I'
	.db #0x55	; 85	'U'
	.db #0x55	; 85	'U'
	.db #0x55	; 85	'U'
	.db #0x49	; 73	'I'
	.db #0x55	; 85	'U'
	.db #0x55	; 85	'U'
	.db #0x55	; 85	'U'
	.db #0x49	; 73	'I'
	.db #0x55	; 85	'U'
	.db #0x49	; 73	'I'
	.db #0x55	; 85	'U'
	.db #0x49	; 73	'I'
	.db #0x4D	; 77	'M'
	.db #0x50	; 80	'P'
	.db #0x55	; 85	'U'
	.db #0x4E	; 78	'N'
	.db #0x55	; 85	'U'
	.db #0x55	; 85	'U'
	.db #0x55	; 85	'U'
	.db #0x4E	; 78	'N'
	.db #0x55	; 85	'U'
	.db #0x55	; 85	'U'
	.db #0x55	; 85	'U'
	.db #0x4E	; 78	'N'
	.db #0x55	; 85	'U'
	.db #0x55	; 85	'U'
	.db #0x55	; 85	'U'
	.db #0x4E	; 78	'N'
	.db #0x55	; 85	'U'
	.db #0x55	; 85	'U'
	.db #0x3F	; 63
	.db #0x02	; 2
	.db #0x61	; 97	'a'
	.db #0x3F	; 63
	.db #0x03	; 3
	.db #0xA6	; 166
	.db #0xA6	; 166
	.db #0x66	; 102	'f'
	.db #0x61	; 97	'a'
	.db #0x63	; 99	'c'
	.db #0xA6	; 166
	.db #0xA6	; 166
	.db #0x66	; 102	'f'
	.db #0x69	; 105	'i'
	.db #0x6A	; 106	'j'
	.db #0x69	; 105	'i'
	.db #0x6A	; 106	'j'
	.db #0xA6	; 166
	.db #0xA6	; 166
	.db #0x66	; 102	'f'
	.db #0x61	; 97	'a'
	.db #0x63	; 99	'c'
	.db #0xA6	; 166
	.db #0xA6	; 166
	.db #0x66	; 102	'f'
	.db #0x6D	; 109	'm'
	.db #0x6A	; 106	'j'
	.db #0x6D	; 109	'm'
	.db #0x6A	; 106	'j'
	.db #0xA6	; 166
	.db #0xA6	; 166
	.db #0x66	; 102	'f'
	.db #0x61	; 97	'a'
	.db #0x63	; 99	'c'
	.db #0xA6	; 166
	.db #0xA6	; 166
	.db #0x66	; 102	'f'
	.db #0x69	; 105	'i'
	.db #0x6A	; 106	'j'
	.db #0x69	; 105	'i'
	.db #0x6A	; 106	'j'
	.db #0x3F	; 63
	.db #0x00	; 0
	.db #0xA6	; 166
	.db #0xA6	; 166
	.db #0x66	; 102	'f'
	.db #0x61	; 97	'a'
	.db #0x63	; 99	'c'
	.db #0xA6	; 166
	.db #0xA6	; 166
	.db #0x66	; 102	'f'
	.db #0x6D	; 109	'm'
	.db #0x6A	; 106	'j'
	.db #0x6D	; 109	'm'
	.db #0x6A	; 106	'j'
	.db #0x49	; 73	'I'
	.db #0x55	; 85	'U'
	.db #0x55	; 85	'U'
	.db #0x55	; 85	'U'
	.db #0x49	; 73	'I'
	.db #0x55	; 85	'U'
	.db #0x55	; 85	'U'
	.db #0x55	; 85	'U'
	.db #0x49	; 73	'I'
	.db #0x55	; 85	'U'
	.db #0x49	; 73	'I'
	.db #0x55	; 85	'U'
	.db #0x49	; 73	'I'
	.db #0x4D	; 77	'M'
	.db #0x50	; 80	'P'
	.db #0x55	; 85	'U'
	.db #0x4B	; 75	'K'
	.db #0x57	; 87	'W'
	.db #0x57	; 87	'W'
	.db #0x57	; 87	'W'
	.db #0x4B	; 75	'K'
	.db #0x57	; 87	'W'
	.db #0x57	; 87	'W'
	.db #0x57	; 87	'W'
	.db #0x4B	; 75	'K'
	.db #0x57	; 87	'W'
	.db #0x4B	; 75	'K'
	.db #0x57	; 87	'W'
	.db #0x4B	; 75	'K'
	.db #0x4E	; 78	'N'
	.db #0x52	; 82	'R'
	.db #0x57	; 87	'W'
	.db #0x49	; 73	'I'
	.db #0x55	; 85	'U'
	.db #0x55	; 85	'U'
	.db #0x55	; 85	'U'
	.db #0x49	; 73	'I'
	.db #0x55	; 85	'U'
	.db #0x55	; 85	'U'
	.db #0x55	; 85	'U'
	.db #0x49	; 73	'I'
	.db #0x55	; 85	'U'
	.db #0x49	; 73	'I'
	.db #0x55	; 85	'U'
	.db #0x49	; 73	'I'
	.db #0x4D	; 77	'M'
	.db #0x50	; 80	'P'
	.db #0x55	; 85	'U'
	.db #0x4B	; 75	'K'
	.db #0x57	; 87	'W'
	.db #0x57	; 87	'W'
	.db #0x57	; 87	'W'
	.db #0x4B	; 75	'K'
	.db #0x57	; 87	'W'
	.db #0x57	; 87	'W'
	.db #0x57	; 87	'W'
	.db #0x4B	; 75	'K'
	.db #0x57	; 87	'W'
	.db #0x4B	; 75	'K'
	.db #0x57	; 87	'W'
	.db #0x4B	; 75	'K'
	.db #0x4E	; 78	'N'
	.db #0x52	; 82	'R'
	.db #0x57	; 87	'W'
	.db #0x49	; 73	'I'
	.db #0x55	; 85	'U'
	.db #0x55	; 85	'U'
	.db #0x55	; 85	'U'
	.db #0x49	; 73	'I'
	.db #0x55	; 85	'U'
	.db #0x55	; 85	'U'
	.db #0x55	; 85	'U'
	.db #0x49	; 73	'I'
	.db #0x55	; 85	'U'
	.db #0x49	; 73	'I'
	.db #0x55	; 85	'U'
	.db #0x49	; 73	'I'
	.db #0x4D	; 77	'M'
	.db #0x50	; 80	'P'
	.db #0x55	; 85	'U'
	.db #0x4B	; 75	'K'
	.db #0x57	; 87	'W'
	.db #0x57	; 87	'W'
	.db #0x57	; 87	'W'
	.db #0x4B	; 75	'K'
	.db #0x57	; 87	'W'
	.db #0x57	; 87	'W'
	.db #0x57	; 87	'W'
	.db #0x4B	; 75	'K'
	.db #0x57	; 87	'W'
	.db #0x4B	; 75	'K'
	.db #0x57	; 87	'W'
	.db #0x4B	; 75	'K'
	.db #0x4E	; 78	'N'
	.db #0x52	; 82	'R'
	.db #0x57	; 87	'W'
	.db #0x49	; 73	'I'
	.db #0x55	; 85	'U'
	.db #0x55	; 85	'U'
	.db #0x55	; 85	'U'
	.db #0x49	; 73	'I'
	.db #0x55	; 85	'U'
	.db #0x55	; 85	'U'
	.db #0x55	; 85	'U'
	.db #0x49	; 73	'I'
	.db #0x55	; 85	'U'
	.db #0x49	; 73	'I'
	.db #0x55	; 85	'U'
	.db #0x49	; 73	'I'
	.db #0x4D	; 77	'M'
	.db #0x50	; 80	'P'
	.db #0x55	; 85	'U'
	.db #0x4E	; 78	'N'
	.db #0x55	; 85	'U'
	.db #0x55	; 85	'U'
	.db #0x55	; 85	'U'
	.db #0x4E	; 78	'N'
	.db #0x55	; 85	'U'
	.db #0x55	; 85	'U'
	.db #0x55	; 85	'U'
	.db #0x4E	; 78	'N'
	.db #0x55	; 85	'U'
	.db #0x55	; 85	'U'
	.db #0x55	; 85	'U'
	.db #0x4E	; 78	'N'
	.db #0x55	; 85	'U'
	.db #0x55	; 85	'U'
	.db #0x3F	; 63
	.db #0x02	; 2
	.db #0x61	; 97	'a'
	.db #0xC1	; 193
	.db #0xFE	; 254
	.db #0xFE	; 254
	.db #0xFE	; 254
	.db #0xFE	; 254
	.db #0xFE	; 254
	.db #0xFE	; 254
	.db #0x00	; 0
	.db #0x3F	; 63
	.db #0x03	; 3
	.db #0xC1	; 193
	.db #0xFE	; 254
	.db #0xFE	; 254
	.db #0xFE	; 254
	.db #0xFE	; 254
	.db #0xFE	; 254
	.db #0xFE	; 254
	.db #0xC1	; 193
	.db #0xFE	; 254
	.db #0xFE	; 254
	.db #0xFE	; 254
	.db #0xFE	; 254
	.db #0xFE	; 254
	.db #0xFE	; 254
	.db #0x41	; 65	'A'
	.db #0x7E	; 126
	.db #0xA6	; 166
	.db #0xA6	; 166
	.db #0x66	; 102	'f'
	.db #0x61	; 97	'a'
	.db #0x63	; 99	'c'
	.db #0xA6	; 166
	.db #0xA6	; 166
	.db #0x66	; 102	'f'
	.db #0x69	; 105	'i'
	.db #0x6A	; 106	'j'
	.db #0x29	; 41
	.db #0x6A	; 106	'j'
	.db #0x7E	; 126
	.db #0xA6	; 166
	.db #0xA6	; 166
	.db #0x66	; 102	'f'
	.db #0x61	; 97	'a'
	.db #0x63	; 99	'c'
	.db #0xA6	; 166
	.db #0xA6	; 166
	.db #0x66	; 102	'f'
	.db #0x6D	; 109	'm'
	.db #0x6A	; 106	'j'
	.db #0xAD	; 173
	.db #0xA6	; 166
	.db #0xA6	; 166
	.db #0x66	; 102	'f'
	.db #0x61	; 97	'a'
	.db #0x63	; 99	'c'
	.db #0xA6	; 166
	.db #0xA6	; 166
	.db #0x66	; 102	'f'
	.db #0x69	; 105	'i'
	.db #0x6A	; 106	'j'
	.db #0x29	; 41
	.db #0x6A	; 106	'j'
	.db #0x7E	; 126
	.db #0xA6	; 166
	.db #0xA6	; 166
	.db #0x66	; 102	'f'
	.db #0x61	; 97	'a'
	.db #0x63	; 99	'c'
	.db #0xA6	; 166
	.db #0xA6	; 166
	.db #0x66	; 102	'f'
	.db #0x6D	; 109	'm'
	.db #0x6A	; 106	'j'
	.db #0x2D	; 45
	.db #0x3F	; 63
	.db #0x00	; 0
	.db #0xED	; 237
	.db #0xFE	; 254
	.db #0xFE	; 254
	.db #0x3F	; 63
	.db #0x03	; 3
	.db #0xED	; 237
	.db #0x3F	; 63
	.db #0x00	; 0
	.db #0x6A	; 106	'j'
	.db #0x66	; 102	'f'
	.db #0x6A	; 106	'j'
	.db #0x66	; 102	'f'
	.db #0xEA	; 234
	.db #0x3F	; 63
	.db #0x03	; 3
	.db #0xAA	; 170
	.db #0x3F	; 63
	.db #0x00	; 0
	.db #0xB2	; 178
	.db #0xAD	; 173
	.db #0x3F	; 63
	.db #0x03	; 3
	.db #0xAD	; 173
	.db #0x3F	; 63
	.db #0x00	; 0
	.db #0xAA	; 170
	.db #0xA6	; 166
	.db #0xED	; 237
	.db #0xFE	; 254
	.db #0xFE	; 254
	.db #0x3F	; 63
	.db #0x03	; 3
	.db #0xED	; 237
	.db #0x3F	; 63
	.db #0x00	; 0
	.db #0x6A	; 106	'j'
	.db #0x66	; 102	'f'
	.db #0x6A	; 106	'j'
	.db #0x66	; 102	'f'
	.db #0xEA	; 234
	.db #0xFE	; 254
	.db #0xA8	; 168
	.db #0xE6	; 230
	.db #0x3F	; 63
	.db #0x03	; 3
	.db #0xA6	; 166
	.db #0x3F	; 63
	.db #0x00	; 0
	.db #0xAD	; 173
	.db #0xE8	; 232
	.db #0x3F	; 63
	.db #0x03	; 3
	.db #0xA8	; 168
	.db #0x3F	; 63
	.db #0x00	; 0
	.db #0xA6	; 166
	.db #0xE5	; 229
	.db #0xA6	; 166
	.db #0xA8	; 168
	.db #0xEA	; 234
	.db #0x3F	; 63
	.db #0x03	; 3
	.db #0xAA	; 170
	.db #0x3F	; 63
	.db #0x00	; 0
	.db #0xA8	; 168
	.db #0xE6	; 230
	.db #0xA1	; 161
	.db #0xA3	; 163
	.db #0xE8	; 232
	.db #0x3F	; 63
	.db #0x03	; 3
	.db #0xA8	; 168
	.db #0x3F	; 63
	.db #0x00	; 0
	.db #0xAA	; 170
	.db #0xED	; 237
	.db #0xAA	; 170
	.db #0xA8	; 168
	.db #0xEA	; 234
	.db #0x3F	; 63
	.db #0x03	; 3
	.db #0xAA	; 170
	.db #0x3F	; 63
	.db #0x00	; 0
	.db #0xA8	; 168
	.db #0xE6	; 230
	.db #0xAD	; 173
	.db #0xAD	; 173
	.db #0xE8	; 232
	.db #0x3F	; 63
	.db #0x03	; 3
	.db #0xA8	; 168
	.db #0x3F	; 63
	.db #0x00	; 0
	.db #0xA6	; 166
	.db #0xE5	; 229
	.db #0xA6	; 166
	.db #0xA8	; 168
	.db #0xEA	; 234
	.db #0x3F	; 63
	.db #0x03	; 3
	.db #0xAA	; 170
	.db #0x3F	; 63
	.db #0x00	; 0
	.db #0xA8	; 168
	.db #0xE6	; 230
	.db #0xA1	; 161
	.db #0xA3	; 163
	.db #0xE8	; 232
	.db #0x3F	; 63
	.db #0x03	; 3
	.db #0xA8	; 168
	.db #0x3F	; 63
	.db #0x00	; 0
	.db #0xAA	; 170
	.db #0xED	; 237
	.db #0xAA	; 170
	.db #0xA8	; 168
	.db #0xE6	; 230
	.db #0xFE	; 254
	.db #0xFE	; 254
	.db #0xFE	; 254
	.db #0x3F	; 63
	.db #0x03	; 3
	.db #0xE6	; 230
	.db #0x3F	; 63
	.db #0x02	; 2
	.db #0x9A	; 154
	.db #0x3F	; 63
	.db #0x00	; 0
	.db #0xED	; 237
	.db #0xFE	; 254
	.db #0xFE	; 254
	.db #0x3F	; 63
	.db #0x03	; 3
	.db #0xED	; 237
	.db #0x3F	; 63
	.db #0x00	; 0
	.db #0x6A	; 106	'j'
	.db #0x66	; 102	'f'
	.db #0x6A	; 106	'j'
	.db #0x66	; 102	'f'
	.db #0xEA	; 234
	.db #0x3F	; 63
	.db #0x03	; 3
	.db #0xAA	; 170
	.db #0x3F	; 63
	.db #0x00	; 0
	.db #0xB2	; 178
	.db #0xAD	; 173
	.db #0x3F	; 63
	.db #0x03	; 3
	.db #0xAD	; 173
	.db #0x3F	; 63
	.db #0x00	; 0
	.db #0xAA	; 170
	.db #0xA6	; 166
	.db #0xED	; 237
	.db #0xFE	; 254
	.db #0xFE	; 254
	.db #0x3F	; 63
	.db #0x03	; 3
	.db #0xED	; 237
	.db #0x3F	; 63
	.db #0x00	; 0
	.db #0x6A	; 106	'j'
	.db #0x66	; 102	'f'
	.db #0x6A	; 106	'j'
	.db #0x66	; 102	'f'
	.db #0xEA	; 234
	.db #0xFE	; 254
	.db #0xA8	; 168
	.db #0xE6	; 230
	.db #0x3F	; 63
	.db #0x03	; 3
	.db #0xA6	; 166
	.db #0x3F	; 63
	.db #0x00	; 0
	.db #0xAD	; 173
	.db #0xE8	; 232
	.db #0x3F	; 63
	.db #0x03	; 3
	.db #0xA8	; 168
	.db #0x3F	; 63
	.db #0x00	; 0
	.db #0xA6	; 166
	.db #0xE5	; 229
	.db #0xA6	; 166
	.db #0xA8	; 168
	.db #0xEA	; 234
	.db #0x3F	; 63
	.db #0x03	; 3
	.db #0xAA	; 170
	.db #0x3F	; 63
	.db #0x00	; 0
	.db #0xA8	; 168
	.db #0xE6	; 230
	.db #0xA1	; 161
	.db #0xA3	; 163
	.db #0xE8	; 232
	.db #0x3F	; 63
	.db #0x03	; 3
	.db #0xA8	; 168
	.db #0x3F	; 63
	.db #0x00	; 0
	.db #0xAA	; 170
	.db #0xED	; 237
	.db #0xAA	; 170
	.db #0xA8	; 168
	.db #0xEA	; 234
	.db #0x3F	; 63
	.db #0x03	; 3
	.db #0xAA	; 170
	.db #0x3F	; 63
	.db #0x00	; 0
	.db #0xA8	; 168
	.db #0xE6	; 230
	.db #0xAD	; 173
	.db #0xAD	; 173
	.db #0xE8	; 232
	.db #0x3F	; 63
	.db #0x03	; 3
	.db #0xA8	; 168
	.db #0x3F	; 63
	.db #0x00	; 0
	.db #0xA6	; 166
	.db #0xE5	; 229
	.db #0xA6	; 166
	.db #0xA8	; 168
	.db #0xEA	; 234
	.db #0x3F	; 63
	.db #0x03	; 3
	.db #0xAA	; 170
	.db #0x3F	; 63
	.db #0x00	; 0
	.db #0xA8	; 168
	.db #0xE6	; 230
	.db #0xA1	; 161
	.db #0xA3	; 163
	.db #0xE8	; 232
	.db #0x3F	; 63
	.db #0x03	; 3
	.db #0xA8	; 168
	.db #0x3F	; 63
	.db #0x00	; 0
	.db #0xAA	; 170
	.db #0xED	; 237
	.db #0xAA	; 170
	.db #0xA8	; 168
	.db #0xE6	; 230
	.db #0xFE	; 254
	.db #0xFE	; 254
	.db #0xFE	; 254
	.db #0x3F	; 63
	.db #0x03	; 3
	.db #0xE6	; 230
	.db #0x3F	; 63
	.db #0x02	; 2
	.db #0x9A	; 154
	.db #0xC1	; 193
	.db #0xFE	; 254
	.db #0xFE	; 254
	.db #0xFE	; 254
	.db #0xFE	; 254
	.db #0xFE	; 254
	.db #0xFE	; 254
	.db #0x00	; 0
	.db #0x7F	; 127
	.db #0x40	; 64
	.db #0x7F	; 127
	.db #0x42	; 66	'B'
	.db #0x7F	; 127
	.db #0x41	; 65	'A'
	.db #0x7F	; 127
	.db #0x42	; 66	'B'
	.db #0x7F	; 127
	.db #0x40	; 64
	.db #0x7F	; 127
	.db #0x40	; 64
	.db #0x7F	; 127
	.db #0x41	; 65	'A'
	.db #0x7F	; 127
	.db #0x42	; 66	'B'
	.db #0x7F	; 127
	.db #0x40	; 64
	.db #0x7F	; 127
	.db #0x42	; 66	'B'
	.db #0x7F	; 127
	.db #0x41	; 65	'A'
	.db #0x7F	; 127
	.db #0x42	; 66	'B'
	.db #0x7F	; 127
	.db #0x40	; 64
	.db #0x7F	; 127
	.db #0x40	; 64
	.db #0x7F	; 127
	.db #0x01	; 1
	.db #0x7F	; 127
	.db #0x01	; 1
	.db #0x7F	; 127
	.db #0x01	; 1
	.db #0x7F	; 127
	.db #0x01	; 1
	.db #0x7F	; 127
	.db #0x40	; 64
	.db #0x7F	; 127
	.db #0x42	; 66	'B'
	.db #0x7F	; 127
	.db #0x41	; 65	'A'
	.db #0x7F	; 127
	.db #0x42	; 66	'B'
	.db #0x7F	; 127
	.db #0x40	; 64
	.db #0x7F	; 127
	.db #0x40	; 64
	.db #0x7F	; 127
	.db #0x41	; 65	'A'
	.db #0x7F	; 127
	.db #0x42	; 66	'B'
	.db #0x7F	; 127
	.db #0x40	; 64
	.db #0x7F	; 127
	.db #0x42	; 66	'B'
	.db #0x7F	; 127
	.db #0x41	; 65	'A'
	.db #0x7F	; 127
	.db #0x42	; 66	'B'
	.db #0x7F	; 127
	.db #0x40	; 64
	.db #0x7F	; 127
	.db #0x40	; 64
	.db #0x7F	; 127
	.db #0x01	; 1
	.db #0x7F	; 127
	.db #0x01	; 1
	.db #0x7F	; 127
	.db #0x01	; 1
	.db #0x7F	; 127
	.db #0x01	; 1
	.db #0x7F	; 127
	.db #0x40	; 64
	.db #0x7F	; 127
	.db #0x42	; 66	'B'
	.db #0x7F	; 127
	.db #0x41	; 65	'A'
	.db #0x7F	; 127
	.db #0x42	; 66	'B'
	.db #0x7F	; 127
	.db #0x40	; 64
	.db #0x7F	; 127
	.db #0x40	; 64
	.db #0x7F	; 127
	.db #0x41	; 65	'A'
	.db #0x7F	; 127
	.db #0x42	; 66	'B'
	.db #0x7F	; 127
	.db #0x40	; 64
	.db #0x7F	; 127
	.db #0x42	; 66	'B'
	.db #0x7F	; 127
	.db #0x41	; 65	'A'
	.db #0x7F	; 127
	.db #0x42	; 66	'B'
	.db #0x7F	; 127
	.db #0x40	; 64
	.db #0x7F	; 127
	.db #0x40	; 64
	.db #0x7F	; 127
	.db #0x01	; 1
	.db #0x7F	; 127
	.db #0x01	; 1
	.db #0x7F	; 127
	.db #0x01	; 1
	.db #0x7F	; 127
	.db #0x01	; 1
	.db #0x7F	; 127
	.db #0x40	; 64
	.db #0x7F	; 127
	.db #0x42	; 66	'B'
	.db #0x7F	; 127
	.db #0x41	; 65	'A'
	.db #0x7F	; 127
	.db #0x42	; 66	'B'
	.db #0x7F	; 127
	.db #0x40	; 64
	.db #0x7F	; 127
	.db #0x40	; 64
	.db #0x7F	; 127
	.db #0x41	; 65	'A'
	.db #0x7F	; 127
	.db #0x42	; 66	'B'
	.db #0x7F	; 127
	.db #0x40	; 64
	.db #0x7F	; 127
	.db #0x42	; 66	'B'
	.db #0x7F	; 127
	.db #0x41	; 65	'A'
	.db #0x7F	; 127
	.db #0x42	; 66	'B'
	.db #0x7F	; 127
	.db #0x01	; 1
	.db #0x7F	; 127
	.db #0x01	; 1
	.db #0x7F	; 127
	.db #0x01	; 1
	.db #0x7F	; 127
	.db #0x01	; 1
	.db #0x7F	; 127
	.db #0x01	; 1
	.db #0x7F	; 127
	.db #0x01	; 1
	.db #0x7F	; 127
	.db #0x01	; 1
	.db #0x7F	; 127
	.db #0x01	; 1
	.db #0x7F	; 127
	.db #0x40	; 64
	.db #0x7F	; 127
	.db #0x42	; 66	'B'
	.db #0x7F	; 127
	.db #0x41	; 65	'A'
	.db #0x7F	; 127
	.db #0x42	; 66	'B'
	.db #0x7F	; 127
	.db #0x40	; 64
	.db #0x7F	; 127
	.db #0x40	; 64
	.db #0x7F	; 127
	.db #0x41	; 65	'A'
	.db #0x7F	; 127
	.db #0x42	; 66	'B'
	.db #0x7F	; 127
	.db #0x40	; 64
	.db #0x7F	; 127
	.db #0x42	; 66	'B'
	.db #0x7F	; 127
	.db #0x41	; 65	'A'
	.db #0x7F	; 127
	.db #0x42	; 66	'B'
	.db #0x7F	; 127
	.db #0x40	; 64
	.db #0x7F	; 127
	.db #0x40	; 64
	.db #0x7F	; 127
	.db #0x01	; 1
	.db #0x7F	; 127
	.db #0x01	; 1
	.db #0x7F	; 127
	.db #0x01	; 1
	.db #0x7F	; 127
	.db #0x01	; 1
	.db #0x7F	; 127
	.db #0x40	; 64
	.db #0x7F	; 127
	.db #0x42	; 66	'B'
	.db #0x7F	; 127
	.db #0x41	; 65	'A'
	.db #0x7F	; 127
	.db #0x42	; 66	'B'
	.db #0x7F	; 127
	.db #0x40	; 64
	.db #0x7F	; 127
	.db #0x40	; 64
	.db #0x7F	; 127
	.db #0x41	; 65	'A'
	.db #0x7F	; 127
	.db #0x42	; 66	'B'
	.db #0x7F	; 127
	.db #0x40	; 64
	.db #0x7F	; 127
	.db #0x42	; 66	'B'
	.db #0x7F	; 127
	.db #0x41	; 65	'A'
	.db #0x7F	; 127
	.db #0x42	; 66	'B'
	.db #0x7F	; 127
	.db #0x01	; 1
	.db #0x7F	; 127
	.db #0x01	; 1
	.db #0x7F	; 127
	.db #0x01	; 1
	.db #0x7F	; 127
	.db #0x01	; 1
	.db #0x7F	; 127
	.db #0x01	; 1
	.db #0x7F	; 127
	.db #0x01	; 1
	.db #0x7F	; 127
	.db #0x01	; 1
	.db #0x7F	; 127
	.db #0x01	; 1
	.db #0x7F	; 127
	.db #0x40	; 64
	.db #0x7F	; 127
	.db #0x42	; 66	'B'
	.db #0x7F	; 127
	.db #0x41	; 65	'A'
	.db #0x7F	; 127
	.db #0x42	; 66	'B'
	.db #0x7F	; 127
	.db #0x40	; 64
	.db #0x7F	; 127
	.db #0x40	; 64
	.db #0x7F	; 127
	.db #0x41	; 65	'A'
	.db #0x7F	; 127
	.db #0x42	; 66	'B'
	.db #0x7F	; 127
	.db #0x40	; 64
	.db #0x7F	; 127
	.db #0x42	; 66	'B'
	.db #0x7F	; 127
	.db #0x41	; 65	'A'
	.db #0x7F	; 127
	.db #0x42	; 66	'B'
	.db #0x7F	; 127
	.db #0x40	; 64
	.db #0x7F	; 127
	.db #0x40	; 64
	.db #0x7F	; 127
	.db #0x01	; 1
	.db #0x7F	; 127
	.db #0x01	; 1
	.db #0x7F	; 127
	.db #0x01	; 1
	.db #0x7F	; 127
	.db #0x01	; 1
	.db #0x7F	; 127
	.db #0x40	; 64
	.db #0x7F	; 127
	.db #0x42	; 66	'B'
	.db #0x7F	; 127
	.db #0x41	; 65	'A'
	.db #0x7F	; 127
	.db #0x42	; 66	'B'
	.db #0x7F	; 127
	.db #0x40	; 64
	.db #0x7F	; 127
	.db #0x40	; 64
	.db #0x7F	; 127
	.db #0x41	; 65	'A'
	.db #0x7F	; 127
	.db #0x42	; 66	'B'
	.db #0x7F	; 127
	.db #0x40	; 64
	.db #0x7F	; 127
	.db #0x42	; 66	'B'
	.db #0x7F	; 127
	.db #0x41	; 65	'A'
	.db #0x7F	; 127
	.db #0x42	; 66	'B'
	.db #0x7F	; 127
	.db #0x01	; 1
	.db #0x7F	; 127
	.db #0x01	; 1
	.db #0x7F	; 127
	.db #0x01	; 1
	.db #0x7F	; 127
	.db #0x01	; 1
	.db #0x7F	; 127
	.db #0x01	; 1
	.db #0x7F	; 127
	.db #0x01	; 1
	.db #0x7F	; 127
	.db #0x01	; 1
	.db #0x7F	; 127
	.db #0x01	; 1
	.db #0x7F	; 127
	.db #0x40	; 64
	.db #0x7F	; 127
	.db #0x42	; 66	'B'
	.db #0x7F	; 127
	.db #0x41	; 65	'A'
	.db #0x7F	; 127
	.db #0x42	; 66	'B'
	.db #0x7F	; 127
	.db #0x40	; 64
	.db #0x7F	; 127
	.db #0x40	; 64
	.db #0x7F	; 127
	.db #0x41	; 65	'A'
	.db #0x7F	; 127
	.db #0x42	; 66	'B'
	.db #0x7F	; 127
	.db #0x40	; 64
	.db #0x7F	; 127
	.db #0x42	; 66	'B'
	.db #0x7F	; 127
	.db #0x41	; 65	'A'
	.db #0x7F	; 127
	.db #0x42	; 66	'B'
	.db #0x7F	; 127
	.db #0x40	; 64
	.db #0x7F	; 127
	.db #0x40	; 64
	.db #0x7F	; 127
	.db #0x01	; 1
	.db #0x7F	; 127
	.db #0x01	; 1
	.db #0x7F	; 127
	.db #0x01	; 1
	.db #0x7F	; 127
	.db #0x01	; 1
	.db #0x7F	; 127
	.db #0x40	; 64
	.db #0x7F	; 127
	.db #0x42	; 66	'B'
	.db #0x7F	; 127
	.db #0x41	; 65	'A'
	.db #0x7F	; 127
	.db #0x42	; 66	'B'
	.db #0x7F	; 127
	.db #0x40	; 64
	.db #0x7F	; 127
	.db #0x40	; 64
	.db #0x7F	; 127
	.db #0x41	; 65	'A'
	.db #0x7F	; 127
	.db #0x42	; 66	'B'
	.db #0x7F	; 127
	.db #0x40	; 64
	.db #0x7F	; 127
	.db #0x42	; 66	'B'
	.db #0x7F	; 127
	.db #0x41	; 65	'A'
	.db #0x7F	; 127
	.db #0x42	; 66	'B'
	.db #0x7F	; 127
	.db #0x01	; 1
	.db #0x7F	; 127
	.db #0x01	; 1
	.db #0x7F	; 127
	.db #0x01	; 1
	.db #0x7F	; 127
	.db #0x01	; 1
	.db #0x7F	; 127
	.db #0x01	; 1
	.db #0x7F	; 127
	.db #0x01	; 1
	.db #0x7F	; 127
	.db #0x01	; 1
	.db #0x7F	; 127
	.db #0x01	; 1
	.db #0x7F	; 127
	.db #0x40	; 64
	.db #0x7F	; 127
	.db #0x42	; 66	'B'
	.db #0x7F	; 127
	.db #0x41	; 65	'A'
	.db #0x7F	; 127
	.db #0x42	; 66	'B'
	.db #0x7F	; 127
	.db #0x40	; 64
	.db #0x7F	; 127
	.db #0x40	; 64
	.db #0x7F	; 127
	.db #0x41	; 65	'A'
	.db #0x7F	; 127
	.db #0x42	; 66	'B'
	.db #0x7F	; 127
	.db #0x40	; 64
	.db #0x7F	; 127
	.db #0x42	; 66	'B'
	.db #0x7F	; 127
	.db #0x41	; 65	'A'
	.db #0x7F	; 127
	.db #0x41	; 65	'A'
	.db #0x7F	; 127
	.db #0x40	; 64
	.db #0x7F	; 127
	.db #0x40	; 64
	.db #0x7F	; 127
	.db #0x41	; 65	'A'
	.db #0x7F	; 127
	.db #0x42	; 66	'B'
	.db #0x7F	; 127
	.db #0x40	; 64
	.db #0x7F	; 127
	.db #0x42	; 66	'B'
	.db #0x7F	; 127
	.db #0x41	; 65	'A'
	.db #0x7F	; 127
	.db #0x40	; 64
	.db #0x7F	; 127
	.db #0x40	; 64
	.db #0x7F	; 127
	.db #0x42	; 66	'B'
	.db #0x7F	; 127
	.db #0x41	; 65	'A'
	.db #0x7F	; 127
	.db #0x42	; 66	'B'
	.db #0x7F	; 127
	.db #0x40	; 64
	.db #0x7F	; 127
	.db #0x42	; 66	'B'
	.db #0x7F	; 127
	.db #0x41	; 65	'A'
	.db #0x7F	; 127
	.db #0x40	; 64
	.db #0x7F	; 127
	.db #0x40	; 64
	.db #0x7F	; 127
	.db #0x42	; 66	'B'
	.db #0x7F	; 127
	.db #0x41	; 65	'A'
	.db #0x7F	; 127
	.db #0x42	; 66	'B'
	.db #0x7F	; 127
	.db #0x40	; 64
	.db #0x7F	; 127
	.db #0x42	; 66	'B'
	.db #0x7F	; 127
	.db #0x41	; 65	'A'
	.db #0x7F	; 127
	.db #0x42	; 66	'B'
	.db #0x7F	; 127
	.db #0x40	; 64
	.db #0x7F	; 127
	.db #0x40	; 64
	.db #0x7F	; 127
	.db #0x41	; 65	'A'
	.db #0x7F	; 127
	.db #0x42	; 66	'B'
	.db #0x7F	; 127
	.db #0x40	; 64
	.db #0x7F	; 127
	.db #0x42	; 66	'B'
	.db #0x7F	; 127
	.db #0x41	; 65	'A'
	.db #0x7F	; 127
	.db #0x41	; 65	'A'
	.db #0x7F	; 127
	.db #0x40	; 64
	.db #0x7F	; 127
	.db #0x40	; 64
	.db #0x7F	; 127
	.db #0x41	; 65	'A'
	.db #0x7F	; 127
	.db #0x42	; 66	'B'
	.db #0x7F	; 127
	.db #0x40	; 64
	.db #0x7F	; 127
	.db #0x42	; 66	'B'
	.db #0x7F	; 127
	.db #0x41	; 65	'A'
	.db #0x7F	; 127
	.db #0x40	; 64
	.db #0x7F	; 127
	.db #0x40	; 64
	.db #0x7F	; 127
	.db #0x42	; 66	'B'
	.db #0x7F	; 127
	.db #0x41	; 65	'A'
	.db #0x7F	; 127
	.db #0x42	; 66	'B'
	.db #0x7F	; 127
	.db #0x40	; 64
	.db #0x7F	; 127
	.db #0x42	; 66	'B'
	.db #0x7F	; 127
	.db #0x41	; 65	'A'
	.db #0x7F	; 127
	.db #0x40	; 64
	.db #0x7F	; 127
	.db #0x40	; 64
	.db #0x7F	; 127
	.db #0x42	; 66	'B'
	.db #0x7F	; 127
	.db #0x01	; 1
	.db #0x7F	; 127
	.db #0x01	; 1
	.db #0x7F	; 127
	.db #0x01	; 1
	.db #0x7F	; 127
	.db #0x01	; 1
	.db #0x7F	; 127
	.db #0x40	; 64
	.db #0x7F	; 127
	.db #0x42	; 66	'B'
	.db #0x7F	; 127
	.db #0x41	; 65	'A'
	.db #0x7F	; 127
	.db #0x42	; 66	'B'
	.db #0x7F	; 127
	.db #0x40	; 64
	.db #0x7F	; 127
	.db #0x40	; 64
	.db #0x7F	; 127
	.db #0x41	; 65	'A'
	.db #0x7F	; 127
	.db #0x42	; 66	'B'
	.db #0x7F	; 127
	.db #0x40	; 64
	.db #0x7F	; 127
	.db #0x42	; 66	'B'
	.db #0x7F	; 127
	.db #0x41	; 65	'A'
	.db #0x7F	; 127
	.db #0x41	; 65	'A'
	.db #0x7F	; 127
	.db #0x40	; 64
	.db #0x7F	; 127
	.db #0x40	; 64
	.db #0x7F	; 127
	.db #0x41	; 65	'A'
	.db #0x7F	; 127
	.db #0x42	; 66	'B'
	.db #0x7F	; 127
	.db #0x40	; 64
	.db #0x7F	; 127
	.db #0x42	; 66	'B'
	.db #0x7F	; 127
	.db #0x41	; 65	'A'
	.db #0x7F	; 127
	.db #0x40	; 64
	.db #0x7F	; 127
	.db #0x40	; 64
	.db #0x7F	; 127
	.db #0x42	; 66	'B'
	.db #0x7F	; 127
	.db #0x41	; 65	'A'
	.db #0x7F	; 127
	.db #0x42	; 66	'B'
	.db #0x7F	; 127
	.db #0x40	; 64
	.db #0x7F	; 127
	.db #0x42	; 66	'B'
	.db #0x7F	; 127
	.db #0x41	; 65	'A'
	.db #0x7F	; 127
	.db #0x40	; 64
	.db #0x7F	; 127
	.db #0x40	; 64
	.db #0x7F	; 127
	.db #0x42	; 66	'B'
	.db #0x7F	; 127
	.db #0x41	; 65	'A'
	.db #0x7F	; 127
	.db #0x42	; 66	'B'
	.db #0x7F	; 127
	.db #0x40	; 64
	.db #0x7F	; 127
	.db #0x42	; 66	'B'
	.db #0x7F	; 127
	.db #0x41	; 65	'A'
	.db #0x7F	; 127
	.db #0x42	; 66	'B'
	.db #0x7F	; 127
	.db #0x40	; 64
	.db #0x7F	; 127
	.db #0x40	; 64
	.db #0x7F	; 127
	.db #0x41	; 65	'A'
	.db #0x7F	; 127
	.db #0x42	; 66	'B'
	.db #0x7F	; 127
	.db #0x40	; 64
	.db #0x7F	; 127
	.db #0x42	; 66	'B'
	.db #0x7F	; 127
	.db #0x41	; 65	'A'
	.db #0x7F	; 127
	.db #0x41	; 65	'A'
	.db #0x7F	; 127
	.db #0x40	; 64
	.db #0x7F	; 127
	.db #0x40	; 64
	.db #0x7F	; 127
	.db #0x41	; 65	'A'
	.db #0x7F	; 127
	.db #0x42	; 66	'B'
	.db #0x7F	; 127
	.db #0x40	; 64
	.db #0x7F	; 127
	.db #0x42	; 66	'B'
	.db #0x7F	; 127
	.db #0x41	; 65	'A'
	.db #0x7F	; 127
	.db #0x40	; 64
	.db #0x7F	; 127
	.db #0x40	; 64
	.db #0x7F	; 127
	.db #0x42	; 66	'B'
	.db #0x7F	; 127
	.db #0x41	; 65	'A'
	.db #0x7F	; 127
	.db #0x42	; 66	'B'
	.db #0x7F	; 127
	.db #0x40	; 64
	.db #0x7F	; 127
	.db #0x42	; 66	'B'
	.db #0x7F	; 127
	.db #0x41	; 65	'A'
	.db #0x7F	; 127
	.db #0x40	; 64
	.db #0x7F	; 127
	.db #0x40	; 64
	.db #0x7F	; 127
	.db #0x42	; 66	'B'
	.db #0x7F	; 127
	.db #0x41	; 65	'A'
	.db #0x7F	; 127
	.db #0x01	; 1
	.db #0x7F	; 127
	.db #0x01	; 1
	.db #0x7F	; 127
	.db #0x40	; 64
	.db #0x7F	; 127
	.db #0x42	; 66	'B'
	.db #0x7F	; 127
	.db #0x41	; 65	'A'
	.db #0x7F	; 127
	.db #0x42	; 66	'B'
	.db #0x7F	; 127
	.db #0x40	; 64
	.db #0x7F	; 127
	.db #0x40	; 64
	.db #0x7F	; 127
	.db #0x41	; 65	'A'
	.db #0x7F	; 127
	.db #0x42	; 66	'B'
	.db #0x7F	; 127
	.db #0x40	; 64
	.db #0x7F	; 127
	.db #0x42	; 66	'B'
	.db #0x7F	; 127
	.db #0x41	; 65	'A'
	.db #0x7F	; 127
	.db #0x42	; 66	'B'
	.db #0x7F	; 127
	.db #0x40	; 64
	.db #0x7F	; 127
	.db #0x40	; 64
	.db #0x7F	; 127
	.db #0x01	; 1
	.db #0x7F	; 127
	.db #0x01	; 1
	.db #0x7F	; 127
	.db #0x01	; 1
	.db #0x7F	; 127
	.db #0x01	; 1
	.db #0x7F	; 127
	.db #0x40	; 64
	.db #0x7F	; 127
	.db #0x42	; 66	'B'
	.db #0x7F	; 127
	.db #0x41	; 65	'A'
	.db #0x7F	; 127
	.db #0x42	; 66	'B'
	.db #0x7F	; 127
	.db #0x40	; 64
	.db #0x7F	; 127
	.db #0x40	; 64
	.db #0x7F	; 127
	.db #0x41	; 65	'A'
	.db #0x7F	; 127
	.db #0x42	; 66	'B'
	.db #0x7F	; 127
	.db #0x40	; 64
	.db #0x7F	; 127
	.db #0x42	; 66	'B'
	.db #0x7F	; 127
	.db #0x41	; 65	'A'
	.db #0x7F	; 127
	.db #0x42	; 66	'B'
	.db #0x7F	; 127
	.db #0x01	; 1
	.db #0x7F	; 127
	.db #0x01	; 1
	.db #0x7F	; 127
	.db #0x01	; 1
	.db #0x7F	; 127
	.db #0x01	; 1
	.db #0x7F	; 127
	.db #0x01	; 1
	.db #0x7F	; 127
	.db #0x01	; 1
	.db #0x7F	; 127
	.db #0x01	; 1
	.db #0x7F	; 127
	.db #0x01	; 1
	.db #0x7F	; 127
	.db #0x40	; 64
	.db #0x7F	; 127
	.db #0x42	; 66	'B'
	.db #0x7F	; 127
	.db #0x41	; 65	'A'
	.db #0x7F	; 127
	.db #0x42	; 66	'B'
	.db #0x7F	; 127
	.db #0x40	; 64
	.db #0x7F	; 127
	.db #0x40	; 64
	.db #0x7F	; 127
	.db #0x41	; 65	'A'
	.db #0x7F	; 127
	.db #0x42	; 66	'B'
	.db #0x7F	; 127
	.db #0x40	; 64
	.db #0x7F	; 127
	.db #0x42	; 66	'B'
	.db #0x7F	; 127
	.db #0x41	; 65	'A'
	.db #0x7F	; 127
	.db #0x42	; 66	'B'
	.db #0x7F	; 127
	.db #0x40	; 64
	.db #0x7F	; 127
	.db #0x40	; 64
	.db #0x7F	; 127
	.db #0x01	; 1
	.db #0x7F	; 127
	.db #0x01	; 1
	.db #0x7F	; 127
	.db #0x01	; 1
	.db #0x7F	; 127
	.db #0x01	; 1
	.db #0x7F	; 127
	.db #0x40	; 64
	.db #0x7F	; 127
	.db #0x42	; 66	'B'
	.db #0x7F	; 127
	.db #0x41	; 65	'A'
	.db #0x7F	; 127
	.db #0x42	; 66	'B'
	.db #0x7F	; 127
	.db #0x40	; 64
	.db #0x7F	; 127
	.db #0x40	; 64
	.db #0x7F	; 127
	.db #0x41	; 65	'A'
	.db #0x7F	; 127
	.db #0x42	; 66	'B'
	.db #0x7F	; 127
	.db #0x40	; 64
	.db #0x7F	; 127
	.db #0x42	; 66	'B'
	.db #0x7F	; 127
	.db #0x41	; 65	'A'
	.db #0x7F	; 127
	.db #0x42	; 66	'B'
	.db #0x7F	; 127
	.db #0x01	; 1
	.db #0x7F	; 127
	.db #0x01	; 1
	.db #0x7F	; 127
	.db #0x01	; 1
	.db #0x7F	; 127
	.db #0x01	; 1
	.db #0x7F	; 127
	.db #0x01	; 1
	.db #0x7F	; 127
	.db #0x01	; 1
	.db #0x7F	; 127
	.db #0x01	; 1
	.db #0x7F	; 127
	.db #0x01	; 1
	.db #0x7F	; 127
	.db #0x40	; 64
	.db #0x7F	; 127
	.db #0x42	; 66	'B'
	.db #0x7F	; 127
	.db #0x41	; 65	'A'
	.db #0x7F	; 127
	.db #0x42	; 66	'B'
	.db #0x7F	; 127
	.db #0x40	; 64
	.db #0x7F	; 127
	.db #0x40	; 64
	.db #0x7F	; 127
	.db #0x41	; 65	'A'
	.db #0x7F	; 127
	.db #0x42	; 66	'B'
	.db #0x7F	; 127
	.db #0x40	; 64
	.db #0x7F	; 127
	.db #0x42	; 66	'B'
	.db #0x7F	; 127
	.db #0x41	; 65	'A'
	.db #0x7F	; 127
	.db #0x41	; 65	'A'
	.db #0x7F	; 127
	.db #0x40	; 64
	.db #0x7F	; 127
	.db #0x40	; 64
	.db #0x7F	; 127
	.db #0x41	; 65	'A'
	.db #0x7F	; 127
	.db #0x42	; 66	'B'
	.db #0x7F	; 127
	.db #0x40	; 64
	.db #0x7F	; 127
	.db #0x42	; 66	'B'
	.db #0x7F	; 127
	.db #0x41	; 65	'A'
	.db #0x7F	; 127
	.db #0x40	; 64
	.db #0x7F	; 127
	.db #0x40	; 64
	.db #0x7F	; 127
	.db #0x42	; 66	'B'
	.db #0x7F	; 127
	.db #0x41	; 65	'A'
	.db #0x7F	; 127
	.db #0x42	; 66	'B'
	.db #0x7F	; 127
	.db #0x40	; 64
	.db #0x7F	; 127
	.db #0x42	; 66	'B'
	.db #0x7F	; 127
	.db #0x41	; 65	'A'
	.db #0x7F	; 127
	.db #0x40	; 64
	.db #0x7F	; 127
	.db #0x40	; 64
	.db #0x7F	; 127
	.db #0x42	; 66	'B'
	.db #0x7F	; 127
	.db #0x41	; 65	'A'
	.db #0x7F	; 127
	.db #0x42	; 66	'B'
	.db #0x7F	; 127
	.db #0x40	; 64
	.db #0x7F	; 127
	.db #0x42	; 66	'B'
	.db #0x7F	; 127
	.db #0x41	; 65	'A'
	.db #0x7F	; 127
	.db #0x42	; 66	'B'
	.db #0x7F	; 127
	.db #0x40	; 64
	.db #0x7F	; 127
	.db #0x40	; 64
	.db #0x7F	; 127
	.db #0x41	; 65	'A'
	.db #0x7F	; 127
	.db #0x42	; 66	'B'
	.db #0x7F	; 127
	.db #0x40	; 64
	.db #0x7F	; 127
	.db #0x42	; 66	'B'
	.db #0x7F	; 127
	.db #0x41	; 65	'A'
	.db #0x7F	; 127
	.db #0x41	; 65	'A'
	.db #0x7F	; 127
	.db #0x40	; 64
	.db #0x7F	; 127
	.db #0x40	; 64
	.db #0x7F	; 127
	.db #0x41	; 65	'A'
	.db #0x7F	; 127
	.db #0x42	; 66	'B'
	.db #0x7F	; 127
	.db #0x40	; 64
	.db #0x7F	; 127
	.db #0x42	; 66	'B'
	.db #0x7F	; 127
	.db #0x41	; 65	'A'
	.db #0x7F	; 127
	.db #0x40	; 64
	.db #0x7F	; 127
	.db #0x40	; 64
	.db #0x7F	; 127
	.db #0x42	; 66	'B'
	.db #0x7F	; 127
	.db #0x41	; 65	'A'
	.db #0x7F	; 127
	.db #0x42	; 66	'B'
	.db #0x7F	; 127
	.db #0x40	; 64
	.db #0x7F	; 127
	.db #0x42	; 66	'B'
	.db #0x7F	; 127
	.db #0x41	; 65	'A'
	.db #0x7F	; 127
	.db #0x40	; 64
	.db #0x7F	; 127
	.db #0x40	; 64
	.db #0x7F	; 127
	.db #0x42	; 66	'B'
	.db #0x7F	; 127
	.db #0x01	; 1
	.db #0x7F	; 127
	.db #0x01	; 1
	.db #0x7F	; 127
	.db #0x01	; 1
	.db #0x7F	; 127
	.db #0x01	; 1
	.db #0x7F	; 127
	.db #0x40	; 64
	.db #0x7F	; 127
	.db #0x42	; 66	'B'
	.db #0x7F	; 127
	.db #0x41	; 65	'A'
	.db #0x7F	; 127
	.db #0x42	; 66	'B'
	.db #0x7F	; 127
	.db #0x40	; 64
	.db #0x7F	; 127
	.db #0x40	; 64
	.db #0x7F	; 127
	.db #0x41	; 65	'A'
	.db #0x7F	; 127
	.db #0x42	; 66	'B'
	.db #0x7F	; 127
	.db #0x40	; 64
	.db #0x7F	; 127
	.db #0x42	; 66	'B'
	.db #0x7F	; 127
	.db #0x41	; 65	'A'
	.db #0x7F	; 127
	.db #0x41	; 65	'A'
	.db #0x7F	; 127
	.db #0x40	; 64
	.db #0x7F	; 127
	.db #0x40	; 64
	.db #0x7F	; 127
	.db #0x41	; 65	'A'
	.db #0x7F	; 127
	.db #0x42	; 66	'B'
	.db #0x7F	; 127
	.db #0x40	; 64
	.db #0x7F	; 127
	.db #0x42	; 66	'B'
	.db #0x7F	; 127
	.db #0x41	; 65	'A'
	.db #0x7F	; 127
	.db #0x40	; 64
	.db #0x7F	; 127
	.db #0x40	; 64
	.db #0x7F	; 127
	.db #0x42	; 66	'B'
	.db #0x7F	; 127
	.db #0x41	; 65	'A'
	.db #0x7F	; 127
	.db #0x42	; 66	'B'
	.db #0x7F	; 127
	.db #0x40	; 64
	.db #0x7F	; 127
	.db #0x42	; 66	'B'
	.db #0x7F	; 127
	.db #0x41	; 65	'A'
	.db #0x7F	; 127
	.db #0x40	; 64
	.db #0x7F	; 127
	.db #0x40	; 64
	.db #0x7F	; 127
	.db #0x42	; 66	'B'
	.db #0x7F	; 127
	.db #0x41	; 65	'A'
	.db #0x7F	; 127
	.db #0x42	; 66	'B'
	.db #0x7F	; 127
	.db #0x40	; 64
	.db #0x7F	; 127
	.db #0x42	; 66	'B'
	.db #0x7F	; 127
	.db #0x41	; 65	'A'
	.db #0x7F	; 127
	.db #0x42	; 66	'B'
	.db #0x7F	; 127
	.db #0x40	; 64
	.db #0x7F	; 127
	.db #0x40	; 64
	.db #0x7F	; 127
	.db #0x41	; 65	'A'
	.db #0x7F	; 127
	.db #0x42	; 66	'B'
	.db #0x7F	; 127
	.db #0x40	; 64
	.db #0x7F	; 127
	.db #0x42	; 66	'B'
	.db #0x7F	; 127
	.db #0x41	; 65	'A'
	.db #0x7F	; 127
	.db #0x41	; 65	'A'
	.db #0x7F	; 127
	.db #0x40	; 64
	.db #0x7F	; 127
	.db #0x40	; 64
	.db #0x7F	; 127
	.db #0x41	; 65	'A'
	.db #0x7F	; 127
	.db #0x42	; 66	'B'
	.db #0x7F	; 127
	.db #0x40	; 64
	.db #0x7F	; 127
	.db #0x42	; 66	'B'
	.db #0x7F	; 127
	.db #0x41	; 65	'A'
	.db #0x7F	; 127
	.db #0x40	; 64
	.db #0x7F	; 127
	.db #0x40	; 64
	.db #0x7F	; 127
	.db #0x42	; 66	'B'
	.db #0x7F	; 127
	.db #0x41	; 65	'A'
	.db #0x7F	; 127
	.db #0x42	; 66	'B'
	.db #0x7F	; 127
	.db #0x40	; 64
	.db #0x7F	; 127
	.db #0x42	; 66	'B'
	.db #0x7F	; 127
	.db #0x41	; 65	'A'
	.db #0x7F	; 127
	.db #0x40	; 64
	.db #0x7F	; 127
	.db #0x40	; 64
	.db #0x7F	; 127
	.db #0x42	; 66	'B'
	.db #0x7F	; 127
	.db #0x41	; 65	'A'
	.db #0x7F	; 127
	.db #0x01	; 1
	.db #0x7F	; 127
	.db #0x01	; 1
	.db #0x7F	; 127
	.db #0x40	; 64
	.db #0x7F	; 127
	.db #0x42	; 66	'B'
	.db #0x7F	; 127
	.db #0x41	; 65	'A'
	.db #0x7F	; 127
	.db #0x42	; 66	'B'
	.db #0x7F	; 127
	.db #0x40	; 64
	.db #0x7F	; 127
	.db #0x40	; 64
	.db #0x7F	; 127
	.db #0x41	; 65	'A'
	.db #0x7F	; 127
	.db #0x42	; 66	'B'
	.db #0x7F	; 127
	.db #0x40	; 64
	.db #0x7F	; 127
	.db #0x42	; 66	'B'
	.db #0x7F	; 127
	.db #0x41	; 65	'A'
	.db #0x7F	; 127
	.db #0x42	; 66	'B'
	.db #0x7F	; 127
	.db #0x40	; 64
	.db #0x7F	; 127
	.db #0x40	; 64
	.db #0x7F	; 127
	.db #0x01	; 1
	.db #0x7F	; 127
	.db #0x01	; 1
	.db #0x7F	; 127
	.db #0x01	; 1
	.db #0x7F	; 127
	.db #0x01	; 1
	.db #0x00	; 0
	.db #0x00	; 0
_SONG_2:
	.db #0x01	; 1
	.db #0x07	; 7
	.db #0x00	; 0
	.db #0x00	; 0
	.db #0x3F	; 63
	.db #0x00	; 0
	.db #0xCE	; 206
	.db #0xFE	; 254
	.db #0xDA	; 218
	.db #0xFE	; 254
	.db #0xDD	; 221
	.db #0xFE	; 254
	.db #0xDA	; 218
	.db #0xFE	; 254
	.db #0xE1	; 225
	.db #0xFE	; 254
	.db #0xDD	; 221
	.db #0xFE	; 254
	.db #0xDC	; 220
	.db #0xFE	; 254
	.db #0xDA	; 218
	.db #0xFE	; 254
	.db #0xCE	; 206
	.db #0xFE	; 254
	.db #0xDA	; 218
	.db #0xFE	; 254
	.db #0xDD	; 221
	.db #0xFE	; 254
	.db #0xDA	; 218
	.db #0xFE	; 254
	.db #0xE1	; 225
	.db #0xFE	; 254
	.db #0xDD	; 221
	.db #0xFE	; 254
	.db #0xDC	; 220
	.db #0xFE	; 254
	.db #0xDA	; 218
	.db #0xFE	; 254
	.db #0xCE	; 206
	.db #0xFE	; 254
	.db #0xDA	; 218
	.db #0xFE	; 254
	.db #0xDD	; 221
	.db #0xFE	; 254
	.db #0xDA	; 218
	.db #0xFE	; 254
	.db #0xE1	; 225
	.db #0xFE	; 254
	.db #0xDD	; 221
	.db #0xFE	; 254
	.db #0xDC	; 220
	.db #0xFE	; 254
	.db #0xDA	; 218
	.db #0xFE	; 254
	.db #0xD3	; 211
	.db #0xFE	; 254
	.db #0xDA	; 218
	.db #0xFE	; 254
	.db #0xDF	; 223
	.db #0xFE	; 254
	.db #0xDA	; 218
	.db #0xFE	; 254
	.db #0xE2	; 226
	.db #0xFE	; 254
	.db #0xDF	; 223
	.db #0xFE	; 254
	.db #0xDA	; 218
	.db #0xFE	; 254
	.db #0xD8	; 216
	.db #0xFE	; 254
	.db #0xCE	; 206
	.db #0xFE	; 254
	.db #0xDA	; 218
	.db #0xFE	; 254
	.db #0xDD	; 221
	.db #0xFE	; 254
	.db #0xDA	; 218
	.db #0xFE	; 254
	.db #0xE1	; 225
	.db #0xFE	; 254
	.db #0xDD	; 221
	.db #0xFE	; 254
	.db #0xDC	; 220
	.db #0xFE	; 254
	.db #0xDA	; 218
	.db #0xFE	; 254
	.db #0xD5	; 213
	.db #0xFE	; 254
	.db #0xDC	; 220
	.db #0xFE	; 254
	.db #0xE1	; 225
	.db #0xFE	; 254
	.db #0xDC	; 220
	.db #0xFE	; 254
	.db #0xE4	; 228
	.db #0xFE	; 254
	.db #0xE1	; 225
	.db #0xFE	; 254
	.db #0xDC	; 220
	.db #0xFE	; 254
	.db #0xE1	; 225
	.db #0xFE	; 254
	.db #0xCA	; 202
	.db #0xFE	; 254
	.db #0xD6	; 214
	.db #0xFE	; 254
	.db #0xDA	; 218
	.db #0xFE	; 254
	.db #0xD6	; 214
	.db #0xFE	; 254
	.db #0xDD	; 221
	.db #0xFE	; 254
	.db #0xDA	; 218
	.db #0xFE	; 254
	.db #0xD8	; 216
	.db #0xFE	; 254
	.db #0xD6	; 214
	.db #0xFE	; 254
	.db #0xD1	; 209
	.db #0xFE	; 254
	.db #0xDD	; 221
	.db #0xFE	; 254
	.db #0xE1	; 225
	.db #0xFE	; 254
	.db #0xDD	; 221
	.db #0xFE	; 254
	.db #0xDA	; 218
	.db #0xFE	; 254
	.db #0xDD	; 221
	.db #0xFE	; 254
	.db #0xE1	; 225
	.db #0xFE	; 254
	.db #0xDD	; 221
	.db #0xFE	; 254
	.db #0xD8	; 216
	.db #0xFE	; 254
	.db #0xDF	; 223
	.db #0xFE	; 254
	.db #0xFE	; 254
	.db #0xFE	; 254
	.db #0xFE	; 254
	.db #0xFE	; 254
	.db #0xFE	; 254
	.db #0xFE	; 254
	.db #0xFE	; 254
	.db #0xFE	; 254
	.db #0xFE	; 254
	.db #0xFE	; 254
	.db #0xC1	; 193
	.db #0xFE	; 254
	.db #0xFE	; 254
	.db #0xFE	; 254
	.db #0xFE	; 254
	.db #0xFE	; 254
	.db #0xFE	; 254
	.db #0xD8	; 216
	.db #0xFE	; 254
	.db #0xDF	; 223
	.db #0xFE	; 254
	.db #0xE4	; 228
	.db #0xFE	; 254
	.db #0xFE	; 254
	.db #0xFE	; 254
	.db #0xFE	; 254
	.db #0xFE	; 254
	.db #0xFE	; 254
	.db #0xFE	; 254
	.db #0xFE	; 254
	.db #0xFE	; 254
	.db #0xFE	; 254
	.db #0xC1	; 193
	.db #0xFE	; 254
	.db #0xFE	; 254
	.db #0xFE	; 254
	.db #0xFE	; 254
	.db #0xCE	; 206
	.db #0xFE	; 254
	.db #0xDA	; 218
	.db #0xFE	; 254
	.db #0xDD	; 221
	.db #0xFE	; 254
	.db #0xDA	; 218
	.db #0xFE	; 254
	.db #0xE1	; 225
	.db #0xFE	; 254
	.db #0xDD	; 221
	.db #0xFE	; 254
	.db #0xDC	; 220
	.db #0xFE	; 254
	.db #0xDA	; 218
	.db #0xFE	; 254
	.db #0xD3	; 211
	.db #0xFE	; 254
	.db #0xDA	; 218
	.db #0xFE	; 254
	.db #0xDF	; 223
	.db #0xFE	; 254
	.db #0xDA	; 218
	.db #0xFE	; 254
	.db #0xE2	; 226
	.db #0xFE	; 254
	.db #0xDF	; 223
	.db #0xFE	; 254
	.db #0xDA	; 218
	.db #0xFE	; 254
	.db #0xD8	; 216
	.db #0xFE	; 254
	.db #0xCE	; 206
	.db #0xFE	; 254
	.db #0xDA	; 218
	.db #0xFE	; 254
	.db #0xDD	; 221
	.db #0xFE	; 254
	.db #0xDA	; 218
	.db #0xFE	; 254
	.db #0xE1	; 225
	.db #0xFE	; 254
	.db #0xDD	; 221
	.db #0xFE	; 254
	.db #0xDC	; 220
	.db #0xFE	; 254
	.db #0xDA	; 218
	.db #0xFE	; 254
	.db #0xD5	; 213
	.db #0xFE	; 254
	.db #0xDC	; 220
	.db #0xFE	; 254
	.db #0xE1	; 225
	.db #0xFE	; 254
	.db #0xDC	; 220
	.db #0xFE	; 254
	.db #0xE4	; 228
	.db #0xFE	; 254
	.db #0xE1	; 225
	.db #0xFE	; 254
	.db #0xDC	; 220
	.db #0xFE	; 254
	.db #0xE1	; 225
	.db #0xFE	; 254
	.db #0xCA	; 202
	.db #0xFE	; 254
	.db #0xD6	; 214
	.db #0xFE	; 254
	.db #0xDA	; 218
	.db #0xFE	; 254
	.db #0xD6	; 214
	.db #0xFE	; 254
	.db #0xDD	; 221
	.db #0xFE	; 254
	.db #0xDA	; 218
	.db #0xFE	; 254
	.db #0xD8	; 216
	.db #0xFE	; 254
	.db #0xD6	; 214
	.db #0xFE	; 254
	.db #0xD1	; 209
	.db #0xFE	; 254
	.db #0xDD	; 221
	.db #0xFE	; 254
	.db #0xE1	; 225
	.db #0xFE	; 254
	.db #0xDD	; 221
	.db #0xFE	; 254
	.db #0xDA	; 218
	.db #0xFE	; 254
	.db #0xDD	; 221
	.db #0xFE	; 254
	.db #0xE1	; 225
	.db #0xFE	; 254
	.db #0xDD	; 221
	.db #0xFE	; 254
	.db #0xD8	; 216
	.db #0xFE	; 254
	.db #0xDF	; 223
	.db #0xFE	; 254
	.db #0xFE	; 254
	.db #0xFE	; 254
	.db #0xFE	; 254
	.db #0xFE	; 254
	.db #0xFE	; 254
	.db #0xFE	; 254
	.db #0xFE	; 254
	.db #0xFE	; 254
	.db #0xFE	; 254
	.db #0xC1	; 193
	.db #0xFE	; 254
	.db #0xFE	; 254
	.db #0xFE	; 254
	.db #0xFE	; 254
	.db #0xFE	; 254
	.db #0xFE	; 254
	.db #0xFE	; 254
	.db #0xD8	; 216
	.db #0xFE	; 254
	.db #0xDF	; 223
	.db #0xFE	; 254
	.db #0xE4	; 228
	.db #0xFE	; 254
	.db #0xDF	; 223
	.db #0xFE	; 254
	.db #0xE4	; 228
	.db #0xFE	; 254
	.db #0xFE	; 254
	.db #0xFE	; 254
	.db #0xFE	; 254
	.db #0xC1	; 193
	.db #0xFE	; 254
	.db #0xFE	; 254
	.db #0xFE	; 254
	.db #0xFE	; 254
	.db #0xD9	; 217
	.db #0xFE	; 254
	.db #0xDD	; 221
	.db #0xFE	; 254
	.db #0xE0	; 224
	.db #0xFE	; 254
	.db #0xDD	; 221
	.db #0xFE	; 254
	.db #0xD9	; 217
	.db #0xFE	; 254
	.db #0xE0	; 224
	.db #0xFE	; 254
	.db #0xDD	; 221
	.db #0xFE	; 254
	.db #0xE0	; 224
	.db #0xFE	; 254
	.db #0xD9	; 217
	.db #0xFE	; 254
	.db #0xE0	; 224
	.db #0xFE	; 254
	.db #0xE5	; 229
	.db #0xFE	; 254
	.db #0xE0	; 224
	.db #0xFE	; 254
	.db #0xE9	; 233
	.db #0xFE	; 254
	.db #0xE5	; 229
	.db #0xFE	; 254
	.db #0xE0	; 224
	.db #0xFE	; 254
	.db #0xE5	; 229
	.db #0xFE	; 254
	.db #0xDD	; 221
	.db #0xFE	; 254
	.db #0xE0	; 224
	.db #0xFE	; 254
	.db #0xE4	; 228
	.db #0xFE	; 254
	.db #0xE0	; 224
	.db #0xFE	; 254
	.db #0xE9	; 233
	.db #0xFE	; 254
	.db #0xE4	; 228
	.db #0xFE	; 254
	.db #0xE0	; 224
	.db #0xFE	; 254
	.db #0xE4	; 228
	.db #0xFE	; 254
	.db #0xDD	; 221
	.db #0xFE	; 254
	.db #0xE0	; 224
	.db #0xFE	; 254
	.db #0xE4	; 228
	.db #0xFE	; 254
	.db #0xE0	; 224
	.db #0xFE	; 254
	.db #0xDD	; 221
	.db #0xFE	; 254
	.db #0xE0	; 224
	.db #0xFE	; 254
	.db #0xE4	; 228
	.db #0xFE	; 254
	.db #0xE0	; 224
	.db #0xFE	; 254
	.db #0xDD	; 221
	.db #0xFE	; 254
	.db #0xE4	; 228
	.db #0xFE	; 254
	.db #0xE9	; 233
	.db #0xFE	; 254
	.db #0xE4	; 228
	.db #0xFE	; 254
	.db #0xE0	; 224
	.db #0xFE	; 254
	.db #0xE4	; 228
	.db #0xFE	; 254
	.db #0xE9	; 233
	.db #0xFE	; 254
	.db #0xE4	; 228
	.db #0xFE	; 254
	.db #0xE0	; 224
	.db #0xFE	; 254
	.db #0xE5	; 229
	.db #0xFE	; 254
	.db #0xE9	; 233
	.db #0xFE	; 254
	.db #0xEC	; 236
	.db #0xFE	; 254
	.db #0xE9	; 233
	.db #0xFE	; 254
	.db #0xE7	; 231
	.db #0xFE	; 254
	.db #0xE5	; 229
	.db #0xFE	; 254
	.db #0xE0	; 224
	.db #0xFE	; 254
	.db #0xDD	; 221
	.db #0xFE	; 254
	.db #0xE0	; 224
	.db #0xFE	; 254
	.db #0xE5	; 229
	.db #0xFE	; 254
	.db #0xE9	; 233
	.db #0xFE	; 254
	.db #0xE7	; 231
	.db #0xFE	; 254
	.db #0xE5	; 229
	.db #0xFE	; 254
	.db #0xE0	; 224
	.db #0xFE	; 254
	.db #0xDD	; 221
	.db #0xFE	; 254
	.db #0xDB	; 219
	.db #0xFE	; 254
	.db #0xDF	; 223
	.db #0xFE	; 254
	.db #0xE2	; 226
	.db #0xFE	; 254
	.db #0xE7	; 231
	.db #0xFE	; 254
	.db #0xE5	; 229
	.db #0xFE	; 254
	.db #0xE2	; 226
	.db #0xFE	; 254
	.db #0xDF	; 223
	.db #0xFE	; 254
	.db #0xDB	; 219
	.db #0xFE	; 254
	.db #0xD9	; 217
	.db #0xFE	; 254
	.db #0xE5	; 229
	.db #0xFE	; 254
	.db #0xE9	; 233
	.db #0xFE	; 254
	.db #0xC1	; 193
	.db #0xFE	; 254
	.db #0xDB	; 219
	.db #0xFE	; 254
	.db #0xE7	; 231
	.db #0xFE	; 254
	.db #0xEB	; 235
	.db #0xFE	; 254
	.db #0xC1	; 193
	.db #0xFE	; 254
	.db #0xD1	; 209
	.db #0xFE	; 254
	.db #0xD8	; 216
	.db #0xFE	; 254
	.db #0xDD	; 221
	.db #0xFE	; 254
	.db #0xE0	; 224
	.db #0xFE	; 254
	.db #0xE4	; 228
	.db #0xFE	; 254
	.db #0xFE	; 254
	.db #0xFE	; 254
	.db #0xFE	; 254
	.db #0xFE	; 254
	.db #0xFE	; 254
	.db #0xFE	; 254
	.db #0xFE	; 254
	.db #0xFE	; 254
	.db #0xFE	; 254
	.db #0xFE	; 254
	.db #0xFE	; 254
	.db #0xFE	; 254
	.db #0xFE	; 254
	.db #0xFE	; 254
	.db #0xFE	; 254
	.db #0xFE	; 254
	.db #0xFE	; 254
	.db #0xFE	; 254
	.db #0xFE	; 254
	.db #0xFE	; 254
	.db #0xFE	; 254
	.db #0xC1	; 193
	.db #0xFE	; 254
	.db #0xFE	; 254
	.db #0xFE	; 254
	.db #0xFE	; 254
	.db #0xFE	; 254
	.db #0xFE	; 254
	.db #0xFE	; 254
	.db #0xFE	; 254
	.db #0xFE	; 254
	.db #0xFE	; 254
	.db #0x00	; 0
	.db #0x3F	; 63
	.db #0x03	; 3
	.db #0x81	; 129
	.db #0x01	; 1
	.db #0xCE	; 206
	.db #0xFE	; 254
	.db #0xDA	; 218
	.db #0xFE	; 254
	.db #0xDD	; 221
	.db #0xFE	; 254
	.db #0xDA	; 218
	.db #0xFE	; 254
	.db #0xE1	; 225
	.db #0xFE	; 254
	.db #0xDD	; 221
	.db #0xFE	; 254
	.db #0xDC	; 220
	.db #0xFE	; 254
	.db #0x9A	; 154
	.db #0xBE	; 190
	.db #0x01	; 1
	.db #0x81	; 129
	.db #0x01	; 1
	.db #0xCE	; 206
	.db #0xFE	; 254
	.db #0xDA	; 218
	.db #0xFE	; 254
	.db #0xDD	; 221
	.db #0xFE	; 254
	.db #0xDA	; 218
	.db #0xFE	; 254
	.db #0xE1	; 225
	.db #0xFE	; 254
	.db #0xDD	; 221
	.db #0xFE	; 254
	.db #0xDC	; 220
	.db #0xFE	; 254
	.db #0x9A	; 154
	.db #0xBE	; 190
	.db #0x01	; 1
	.db #0x3F	; 63
	.db #0x00	; 0
	.db #0xE1	; 225
	.db #0xFE	; 254
	.db #0xFE	; 254
	.db #0xFE	; 254
	.db #0xFE	; 254
	.db #0xFE	; 254
	.db #0xFE	; 254
	.db #0xFE	; 254
	.db #0xFE	; 254
	.db #0xFE	; 254
	.db #0xFE	; 254
	.db #0xE6	; 230
	.db #0xFE	; 254
	.db #0xFE	; 254
	.db #0xFE	; 254
	.db #0xFE	; 254
	.db #0xFE	; 254
	.db #0xFE	; 254
	.db #0xFE	; 254
	.db #0xA9	; 169
	.db #0xBE	; 190
	.db #0xAD	; 173
	.db #0xBE	; 190
	.db #0xEE	; 238
	.db #0xFE	; 254
	.db #0xFE	; 254
	.db #0xFE	; 254
	.db #0xFE	; 254
	.db #0xFE	; 254
	.db #0xFE	; 254
	.db #0xFE	; 254
	.db #0xFE	; 254
	.db #0xFE	; 254
	.db #0xFE	; 254
	.db #0xC1	; 193
	.db #0xFE	; 254
	.db #0xFE	; 254
	.db #0xFE	; 254
	.db #0xFE	; 254
	.db #0xE4	; 228
	.db #0xFE	; 254
	.db #0xE2	; 226
	.db #0xFE	; 254
	.db #0xE6	; 230
	.db #0xFE	; 254
	.db #0xFE	; 254
	.db #0xFE	; 254
	.db #0xFE	; 254
	.db #0xE1	; 225
	.db #0xFE	; 254
	.db #0xFE	; 254
	.db #0xFE	; 254
	.db #0xFE	; 254
	.db #0xE6	; 230
	.db #0xFE	; 254
	.db #0xFE	; 254
	.db #0xFE	; 254
	.db #0xFE	; 254
	.db #0xE8	; 232
	.db #0xFE	; 254
	.db #0xFE	; 254
	.db #0xFE	; 254
	.db #0xFE	; 254
	.db #0xED	; 237
	.db #0xFE	; 254
	.db #0xFE	; 254
	.db #0xFE	; 254
	.db #0xFE	; 254
	.db #0xFE	; 254
	.db #0xFE	; 254
	.db #0xFE	; 254
	.db #0xFE	; 254
	.db #0xFE	; 254
	.db #0xFE	; 254
	.db #0xC1	; 193
	.db #0xFE	; 254
	.db #0xFE	; 254
	.db #0xFE	; 254
	.db #0xFE	; 254
	.db #0xFE	; 254
	.db #0xFE	; 254
	.db #0xFE	; 254
	.db #0xFE	; 254
	.db #0xFE	; 254
	.db #0xFE	; 254
	.db #0xEE	; 238
	.db #0xFE	; 254
	.db #0xFE	; 254
	.db #0xFE	; 254
	.db #0xFE	; 254
	.db #0xFE	; 254
	.db #0xFE	; 254
	.db #0xFE	; 254
	.db #0xFE	; 254
	.db #0xFE	; 254
	.db #0xFE	; 254
	.db #0xEE	; 238
	.db #0xFE	; 254
	.db #0xFE	; 254
	.db #0xFE	; 254
	.db #0xFE	; 254
	.db #0xFE	; 254
	.db #0xFE	; 254
	.db #0xFE	; 254
	.db #0xE6	; 230
	.db #0xFE	; 254
	.db #0xED	; 237
	.db #0xFE	; 254
	.db #0xFE	; 254
	.db #0xFE	; 254
	.db #0xFE	; 254
	.db #0xE9	; 233
	.db #0xFE	; 254
	.db #0xFE	; 254
	.db #0xFE	; 254
	.db #0xFE	; 254
	.db #0xE1	; 225
	.db #0xFE	; 254
	.db #0xFE	; 254
	.db #0xFE	; 254
	.db #0xFE	; 254
	.db #0xFE	; 254
	.db #0xFE	; 254
	.db #0xFE	; 254
	.db #0xAB	; 171
	.db #0xBE	; 190
	.db #0xA9	; 169
	.db #0xBE	; 190
	.db #0xEB	; 235
	.db #0xFE	; 254
	.db #0xFE	; 254
	.db #0xFE	; 254
	.db #0xFE	; 254
	.db #0xE4	; 228
	.db #0xFE	; 254
	.db #0xE6	; 230
	.db #0xFE	; 254
	.db #0xE8	; 232
	.db #0xFE	; 254
	.db #0xEB	; 235
	.db #0xFE	; 254
	.db #0xF0	; 240
	.db #0xFE	; 254
	.db #0xF2	; 242
	.db #0xFE	; 254
	.db #0xF4	; 244
	.db #0xFE	; 254
	.db #0xFE	; 254
	.db #0xFE	; 254
	.db #0xFE	; 254
	.db #0xFE	; 254
	.db #0xFE	; 254
	.db #0xFE	; 254
	.db #0xF7	; 247
	.db #0xFE	; 254
	.db #0x3F	; 63
	.db #0x02	; 2
	.db #0xF4	; 244
	.db #0xFE	; 254
	.db #0xFE	; 254
	.db #0xFE	; 254
	.db #0xFE	; 254
	.db #0x3F	; 63
	.db #0x00	; 0
	.db #0xFC	; 252
	.db #0xFE	; 254
	.db #0xFE	; 254
	.db #0xFE	; 254
	.db #0xFE	; 254
	.db #0xE1	; 225
	.db #0xFE	; 254
	.db #0xFE	; 254
	.db #0xFE	; 254
	.db #0xFE	; 254
	.db #0xFE	; 254
	.db #0xFE	; 254
	.db #0xFE	; 254
	.db #0xFE	; 254
	.db #0xFE	; 254
	.db #0xFE	; 254
	.db #0xE6	; 230
	.db #0xFE	; 254
	.db #0xFE	; 254
	.db #0xFE	; 254
	.db #0xFE	; 254
	.db #0xFE	; 254
	.db #0xFE	; 254
	.db #0xFE	; 254
	.db #0xA9	; 169
	.db #0xBE	; 190
	.db #0xAD	; 173
	.db #0xBE	; 190
	.db #0xEE	; 238
	.db #0xFE	; 254
	.db #0xFE	; 254
	.db #0xFE	; 254
	.db #0xFE	; 254
	.db #0xFE	; 254
	.db #0xFE	; 254
	.db #0xFE	; 254
	.db #0xFE	; 254
	.db #0xFE	; 254
	.db #0xFE	; 254
	.db #0xC1	; 193
	.db #0xFE	; 254
	.db #0xFE	; 254
	.db #0xFE	; 254
	.db #0xFE	; 254
	.db #0xE4	; 228
	.db #0xFE	; 254
	.db #0xE2	; 226
	.db #0xFE	; 254
	.db #0xE6	; 230
	.db #0xFE	; 254
	.db #0xFE	; 254
	.db #0xFE	; 254
	.db #0xFE	; 254
	.db #0xE1	; 225
	.db #0xFE	; 254
	.db #0xFE	; 254
	.db #0xFE	; 254
	.db #0xFE	; 254
	.db #0xE6	; 230
	.db #0xFE	; 254
	.db #0xFE	; 254
	.db #0xFE	; 254
	.db #0xFE	; 254
	.db #0xE8	; 232
	.db #0xFE	; 254
	.db #0xFE	; 254
	.db #0xFE	; 254
	.db #0xFE	; 254
	.db #0xED	; 237
	.db #0xFE	; 254
	.db #0xFE	; 254
	.db #0xFE	; 254
	.db #0xFE	; 254
	.db #0xFE	; 254
	.db #0xFE	; 254
	.db #0xFE	; 254
	.db #0xFE	; 254
	.db #0xFE	; 254
	.db #0xFE	; 254
	.db #0xC1	; 193
	.db #0xFE	; 254
	.db #0xFE	; 254
	.db #0xFE	; 254
	.db #0xFE	; 254
	.db #0xFE	; 254
	.db #0xFE	; 254
	.db #0xFE	; 254
	.db #0xFE	; 254
	.db #0xFE	; 254
	.db #0xFE	; 254
	.db #0xEE	; 238
	.db #0xFE	; 254
	.db #0xFE	; 254
	.db #0xFE	; 254
	.db #0xFE	; 254
	.db #0xFE	; 254
	.db #0xFE	; 254
	.db #0xFE	; 254
	.db #0xFE	; 254
	.db #0xFE	; 254
	.db #0xFE	; 254
	.db #0xEE	; 238
	.db #0xFE	; 254
	.db #0xFE	; 254
	.db #0xFE	; 254
	.db #0xFE	; 254
	.db #0xFE	; 254
	.db #0xFE	; 254
	.db #0xFE	; 254
	.db #0xE6	; 230
	.db #0xFE	; 254
	.db #0xED	; 237
	.db #0xFE	; 254
	.db #0xFE	; 254
	.db #0xFE	; 254
	.db #0xFE	; 254
	.db #0xE9	; 233
	.db #0xFE	; 254
	.db #0xFE	; 254
	.db #0xFE	; 254
	.db #0xFE	; 254
	.db #0xE1	; 225
	.db #0xFE	; 254
	.db #0xFE	; 254
	.db #0xFE	; 254
	.db #0xFE	; 254
	.db #0xFE	; 254
	.db #0xFE	; 254
	.db #0xFE	; 254
	.db #0xAB	; 171
	.db #0xBE	; 190
	.db #0xA9	; 169
	.db #0xBE	; 190
	.db #0xE7	; 231
	.db #0xFE	; 254
	.db #0xFE	; 254
	.db #0xFE	; 254
	.db #0xFE	; 254
	.db #0xE4	; 228
	.db #0xFE	; 254
	.db #0xE6	; 230
	.db #0xFE	; 254
	.db #0xE7	; 231
	.db #0xFE	; 254
	.db #0xEB	; 235
	.db #0xFE	; 254
	.db #0xF0	; 240
	.db #0xFE	; 254
	.db #0xF2	; 242
	.db #0xFE	; 254
	.db #0xF3	; 243
	.db #0xFE	; 254
	.db #0xFE	; 254
	.db #0xFE	; 254
	.db #0xFE	; 254
	.db #0xFE	; 254
	.db #0xFE	; 254
	.db #0xFE	; 254
	.db #0xFE	; 254
	.db #0xFE	; 254
	.db #0xFE	; 254
	.db #0xFE	; 254
	.db #0xFE	; 254
	.db #0xFE	; 254
	.db #0xFE	; 254
	.db #0xFE	; 254
	.db #0xFE	; 254
	.db #0xF5	; 245
	.db #0xFE	; 254
	.db #0xF3	; 243
	.db #0xFE	; 254
	.db #0xE9	; 233
	.db #0xFE	; 254
	.db #0xFE	; 254
	.db #0xFE	; 254
	.db #0xFE	; 254
	.db #0xFE	; 254
	.db #0xFE	; 254
	.db #0xFE	; 254
	.db #0xFE	; 254
	.db #0xFE	; 254
	.db #0xFE	; 254
	.db #0xC1	; 193
	.db #0xFE	; 254
	.db #0xFE	; 254
	.db #0xFE	; 254
	.db #0xFE	; 254
	.db #0xFE	; 254
	.db #0xFE	; 254
	.db #0xFE	; 254
	.db #0xFE	; 254
	.db #0xFE	; 254
	.db #0xFE	; 254
	.db #0xEC	; 236
	.db #0xFE	; 254
	.db #0xFE	; 254
	.db #0xFE	; 254
	.db #0xFE	; 254
	.db #0xFE	; 254
	.db #0xFE	; 254
	.db #0xFE	; 254
	.db #0xFE	; 254
	.db #0xFE	; 254
	.db #0xFE	; 254
	.db #0xF1	; 241
	.db #0xFE	; 254
	.db #0xFE	; 254
	.db #0xFE	; 254
	.db #0xFE	; 254
	.db #0xFE	; 254
	.db #0xFE	; 254
	.db #0xFE	; 254
	.db #0xB8	; 184
	.db #0xBE	; 190
	.db #0xB7	; 183
	.db #0xBE	; 190
	.db #0xF8	; 248
	.db #0xFE	; 254
	.db #0xFE	; 254
	.db #0xFE	; 254
	.db #0xFE	; 254
	.db #0xFE	; 254
	.db #0xFE	; 254
	.db #0xFE	; 254
	.db #0xFE	; 254
	.db #0xFE	; 254
	.db #0xFE	; 254
	.db #0xC1	; 193
	.db #0xFE	; 254
	.db #0xFE	; 254
	.db #0xFE	; 254
	.db #0xFE	; 254
	.db #0xFE	; 254
	.db #0xFE	; 254
	.db #0xFE	; 254
	.db #0xF5	; 245
	.db #0xFE	; 254
	.db #0xF0	; 240
	.db #0xFE	; 254
	.db #0xFE	; 254
	.db #0xFE	; 254
	.db #0xFE	; 254
	.db #0xF5	; 245
	.db #0xFE	; 254
	.db #0xFE	; 254
	.db #0xFE	; 254
	.db #0xFE	; 254
	.db #0xF0	; 240
	.db #0xFE	; 254
	.db #0xFE	; 254
	.db #0xFE	; 254
	.db #0xFE	; 254
	.db #0xF5	; 245
	.db #0xFE	; 254
	.db #0xFE	; 254
	.db #0xFE	; 254
	.db #0xFE	; 254
	.db #0xF5	; 245
	.db #0xFE	; 254
	.db #0xFE	; 254
	.db #0xFE	; 254
	.db #0xFE	; 254
	.db #0xFE	; 254
	.db #0xFE	; 254
	.db #0xFE	; 254
	.db #0xFE	; 254
	.db #0xFE	; 254
	.db #0xFE	; 254
	.db #0xC1	; 193
	.db #0xFE	; 254
	.db #0xFE	; 254
	.db #0xFE	; 254
	.db #0xFE	; 254
	.db #0xF8	; 248
	.db #0xFE	; 254
	.db #0xF7	; 247
	.db #0xFE	; 254
	.db #0xF1	; 241
	.db #0xFE	; 254
	.db #0xFE	; 254
	.db #0xFE	; 254
	.db #0xFE	; 254
	.db #0xF7	; 247
	.db #0xFE	; 254
	.db #0xFE	; 254
	.db #0xFE	; 254
	.db #0xFE	; 254
	.db #0xEC	; 236
	.db #0xFE	; 254
	.db #0xFE	; 254
	.db #0xFE	; 254
	.db #0xFE	; 254
	.db #0xF5	; 245
	.db #0xFE	; 254
	.db #0xFE	; 254
	.db #0xFE	; 254
	.db #0xFE	; 254
	.db #0xF1	; 241
	.db #0xFE	; 254
	.db #0xFE	; 254
	.db #0xFE	; 254
	.db #0xFE	; 254
	.db #0xF7	; 247
	.db #0xFE	; 254
	.db #0xFE	; 254
	.db #0xFE	; 254
	.db #0xFE	; 254
	.db #0xEC	; 236
	.db #0xFE	; 254
	.db #0xFE	; 254
	.db #0xFE	; 254
	.db #0xFE	; 254
	.db #0xF5	; 245
	.db #0xFE	; 254
	.db #0xFE	; 254
	.db #0xFE	; 254
	.db #0xFE	; 254
	.db #0xF3	; 243
	.db #0xFE	; 254
	.db #0xFE	; 254
	.db #0xFE	; 254
	.db #0xFE	; 254
	.db #0xF7	; 247
	.db #0xFE	; 254
	.db #0xFE	; 254
	.db #0xFE	; 254
	.db #0xFE	; 254
	.db #0xEE	; 238
	.db #0xFE	; 254
	.db #0xFE	; 254
	.db #0xFE	; 254
	.db #0xFE	; 254
	.db #0xF5	; 245
	.db #0xFE	; 254
	.db #0xFE	; 254
	.db #0xFE	; 254
	.db #0xFE	; 254
	.db #0xF1	; 241
	.db #0xFE	; 254
	.db #0xFE	; 254
	.db #0xFE	; 254
	.db #0xFE	; 254
	.db #0xFE	; 254
	.db #0xFE	; 254
	.db #0xFE	; 254
	.db #0xEC	; 236
	.db #0xFE	; 254
	.db #0xEE	; 238
	.db #0xFE	; 254
	.db #0xFE	; 254
	.db #0xFE	; 254
	.db #0xFE	; 254
	.db #0xFE	; 254
	.db #0xFE	; 254
	.db #0xFE	; 254
	.db #0xFE	; 254
	.db #0xFE	; 254
	.db #0xFE	; 254
	.db #0xF5	; 245
	.db #0xFE	; 254
	.db #0xFE	; 254
	.db #0xFE	; 254
	.db #0xFE	; 254
	.db #0xFE	; 254
	.db #0xFE	; 254
	.db #0xFE	; 254
	.db #0xFE	; 254
	.db #0xFE	; 254
	.db #0xFE	; 254
	.db #0xFE	; 254
	.db #0xFE	; 254
	.db #0xFE	; 254
	.db #0xE9	; 233
	.db #0xFE	; 254
	.db #0xEC	; 236
	.db #0xFE	; 254
	.db #0xF0	; 240
	.db #0xFE	; 254
	.db #0xF5	; 245
	.db #0xFE	; 254
	.db #0xFE	; 254
	.db #0xFE	; 254
	.db #0xFE	; 254
	.db #0xFE	; 254
	.db #0xFE	; 254
	.db #0xFE	; 254
	.db #0xFE	; 254
	.db #0xFE	; 254
	.db #0xFE	; 254
	.db #0xF8	; 248
	.db #0xFE	; 254
	.db #0xFE	; 254
	.db #0xFE	; 254
	.db #0xFE	; 254
	.db #0xFC	; 252
	.db #0xFE	; 254
	.db #0xFE	; 254
	.db #0xFE	; 254
	.db #0xFE	; 254
	.db #0x00	; 0
	.db #0x3F	; 63
	.db #0x00	; 0
	.db #0xC1	; 193
	.db #0xFE	; 254
	.db #0xFE	; 254
	.db #0xFE	; 254
	.db #0xFE	; 254
	.db #0xFE	; 254
	.db #0xFE	; 254
	.db #0xFE	; 254
	.db #0xFE	; 254
	.db #0xFE	; 254
	.db #0xFE	; 254
	.db #0xFE	; 254
	.db #0xFE	; 254
	.db #0xFE	; 254
	.db #0xFE	; 254
	.db #0xFE	; 254
	.db #0xFE	; 254
	.db #0xFE	; 254
	.db #0xFE	; 254
	.db #0xFE	; 254
	.db #0xFE	; 254
	.db #0xFE	; 254
	.db #0xFE	; 254
	.db #0xC1	; 193
	.db #0xFE	; 254
	.db #0xFE	; 254
	.db #0xFE	; 254
	.db #0xFE	; 254
	.db #0xFE	; 254
	.db #0xFE	; 254
	.db #0xFE	; 254
	.db #0xFE	; 254
	.db #0xFE	; 254
	.db #0xFE	; 254
	.db #0xFE	; 254
	.db #0xFE	; 254
	.db #0xFE	; 254
	.db #0xFE	; 254
	.db #0xFE	; 254
	.db #0xFE	; 254
	.db #0xFE	; 254
	.db #0xFE	; 254
	.db #0xFE	; 254
	.db #0xFE	; 254
	.db #0xFE	; 254
	.db #0xFE	; 254
	.db #0xE6	; 230
	.db #0xFE	; 254
	.db #0xFE	; 254
	.db #0xFE	; 254
	.db #0xFE	; 254
	.db #0xFE	; 254
	.db #0xFE	; 254
	.db #0xFE	; 254
	.db #0xFE	; 254
	.db #0xFE	; 254
	.db #0xFE	; 254
	.db #0xED	; 237
	.db #0xFE	; 254
	.db #0xFE	; 254
	.db #0xFE	; 254
	.db #0xFE	; 254
	.db #0xFE	; 254
	.db #0xFE	; 254
	.db #0xFE	; 254
	.db #0xAB	; 171
	.db #0xBE	; 190
	.db #0x81	; 129
	.db #0xBE	; 190
	.db #0xE6	; 230
	.db #0xFE	; 254
	.db #0xFE	; 254
	.db #0xFE	; 254
	.db #0xFE	; 254
	.db #0xFE	; 254
	.db #0xFE	; 254
	.db #0xFE	; 254
	.db #0xFE	; 254
	.db #0xFE	; 254
	.db #0xFE	; 254
	.db #0xC1	; 193
	.db #0xFE	; 254
	.db #0xFE	; 254
	.db #0xFE	; 254
	.db #0xFE	; 254
	.db #0xED	; 237
	.db #0xFE	; 254
	.db #0xEB	; 235
	.db #0xFE	; 254
	.db #0xED	; 237
	.db #0xFE	; 254
	.db #0xFE	; 254
	.db #0xFE	; 254
	.db #0xFE	; 254
	.db #0xE6	; 230
	.db #0xFE	; 254
	.db #0xFE	; 254
	.db #0xFE	; 254
	.db #0xFE	; 254
	.db #0xED	; 237
	.db #0xFE	; 254
	.db #0xFE	; 254
	.db #0xFE	; 254
	.db #0xFE	; 254
	.db #0xEF	; 239
	.db #0xFE	; 254
	.db #0xFE	; 254
	.db #0xFE	; 254
	.db #0xFE	; 254
	.db #0xF0	; 240
	.db #0xFE	; 254
	.db #0xFE	; 254
	.db #0xFE	; 254
	.db #0xFE	; 254
	.db #0xFE	; 254
	.db #0xFE	; 254
	.db #0xFE	; 254
	.db #0xFE	; 254
	.db #0xFE	; 254
	.db #0xFE	; 254
	.db #0xC1	; 193
	.db #0xFE	; 254
	.db #0xFE	; 254
	.db #0xFE	; 254
	.db #0xFE	; 254
	.db #0xFE	; 254
	.db #0xFE	; 254
	.db #0xFE	; 254
	.db #0xFE	; 254
	.db #0xFE	; 254
	.db #0xFE	; 254
	.db #0xF2	; 242
	.db #0xFE	; 254
	.db #0xFE	; 254
	.db #0xFE	; 254
	.db #0xFE	; 254
	.db #0xFE	; 254
	.db #0xFE	; 254
	.db #0xFE	; 254
	.db #0xFE	; 254
	.db #0xFE	; 254
	.db #0xFE	; 254
	.db #0xF0	; 240
	.db #0xFE	; 254
	.db #0xFE	; 254
	.db #0xFE	; 254
	.db #0xFE	; 254
	.db #0xFE	; 254
	.db #0xFE	; 254
	.db #0xFE	; 254
	.db #0xEE	; 238
	.db #0xFE	; 254
	.db #0xF0	; 240
	.db #0xFE	; 254
	.db #0xFE	; 254
	.db #0xFE	; 254
	.db #0xFE	; 254
	.db #0xF0	; 240
	.db #0xFE	; 254
	.db #0xFE	; 254
	.db #0xFE	; 254
	.db #0xFE	; 254
	.db #0xE9	; 233
	.db #0xFE	; 254
	.db #0xFE	; 254
	.db #0xFE	; 254
	.db #0xFE	; 254
	.db #0xFE	; 254
	.db #0xFE	; 254
	.db #0xFE	; 254
	.db #0xC1	; 193
	.db #0xFE	; 254
	.db #0x81	; 129
	.db #0x01	; 1
	.db #0x3F	; 63
	.db #0x03	; 3
	.db #0xEB	; 235
	.db #0xFE	; 254
	.db #0xFE	; 254
	.db #0xFE	; 254
	.db #0xFE	; 254
	.db #0xE4	; 228
	.db #0xFE	; 254
	.db #0xE6	; 230
	.db #0xFE	; 254
	.db #0xE8	; 232
	.db #0xFE	; 254
	.db #0xEB	; 235
	.db #0xFE	; 254
	.db #0xF0	; 240
	.db #0xFE	; 254
	.db #0xF2	; 242
	.db #0xFE	; 254
	.db #0xF4	; 244
	.db #0xFE	; 254
	.db #0xFE	; 254
	.db #0xFE	; 254
	.db #0xFE	; 254
	.db #0xFE	; 254
	.db #0xFE	; 254
	.db #0xFE	; 254
	.db #0xB7	; 183
	.db #0xBE	; 190
	.db #0x01	; 1
	.db #0xC1	; 193
	.db #0xFE	; 254
	.db #0xFE	; 254
	.db #0xFE	; 254
	.db #0xFE	; 254
	.db #0xFE	; 254
	.db #0xFE	; 254
	.db #0xFE	; 254
	.db #0xFE	; 254
	.db #0xFE	; 254
	.db #0xFE	; 254
	.db #0x3F	; 63
	.db #0x00	; 0
	.db #0xE6	; 230
	.db #0xFE	; 254
	.db #0xFE	; 254
	.db #0xFE	; 254
	.db #0xFE	; 254
	.db #0xFE	; 254
	.db #0xFE	; 254
	.db #0xFE	; 254
	.db #0xFE	; 254
	.db #0xFE	; 254
	.db #0xFE	; 254
	.db #0xED	; 237
	.db #0xFE	; 254
	.db #0xFE	; 254
	.db #0xFE	; 254
	.db #0xFE	; 254
	.db #0xFE	; 254
	.db #0xFE	; 254
	.db #0xFE	; 254
	.db #0xAB	; 171
	.db #0xBE	; 190
	.db #0x81	; 129
	.db #0xBE	; 190
	.db #0xE6	; 230
	.db #0xFE	; 254
	.db #0xFE	; 254
	.db #0xFE	; 254
	.db #0xFE	; 254
	.db #0xFE	; 254
	.db #0xFE	; 254
	.db #0xFE	; 254
	.db #0xFE	; 254
	.db #0xFE	; 254
	.db #0xFE	; 254
	.db #0xC1	; 193
	.db #0xFE	; 254
	.db #0xFE	; 254
	.db #0xFE	; 254
	.db #0xFE	; 254
	.db #0xED	; 237
	.db #0xFE	; 254
	.db #0xEB	; 235
	.db #0xFE	; 254
	.db #0xED	; 237
	.db #0xFE	; 254
	.db #0xFE	; 254
	.db #0xFE	; 254
	.db #0xFE	; 254
	.db #0xE6	; 230
	.db #0xFE	; 254
	.db #0xFE	; 254
	.db #0xFE	; 254
	.db #0xFE	; 254
	.db #0xED	; 237
	.db #0xFE	; 254
	.db #0xFE	; 254
	.db #0xFE	; 254
	.db #0xFE	; 254
	.db #0xEF	; 239
	.db #0xFE	; 254
	.db #0xFE	; 254
	.db #0xFE	; 254
	.db #0xFE	; 254
	.db #0xF0	; 240
	.db #0xFE	; 254
	.db #0xFE	; 254
	.db #0xFE	; 254
	.db #0xFE	; 254
	.db #0xFE	; 254
	.db #0xFE	; 254
	.db #0xFE	; 254
	.db #0xFE	; 254
	.db #0xFE	; 254
	.db #0xFE	; 254
	.db #0xC1	; 193
	.db #0xFE	; 254
	.db #0xFE	; 254
	.db #0xFE	; 254
	.db #0xFE	; 254
	.db #0xFE	; 254
	.db #0xFE	; 254
	.db #0xFE	; 254
	.db #0xFE	; 254
	.db #0xFE	; 254
	.db #0xFE	; 254
	.db #0xF2	; 242
	.db #0xFE	; 254
	.db #0xFE	; 254
	.db #0xFE	; 254
	.db #0xFE	; 254
	.db #0xFE	; 254
	.db #0xFE	; 254
	.db #0xFE	; 254
	.db #0xFE	; 254
	.db #0xFE	; 254
	.db #0xFE	; 254
	.db #0xF0	; 240
	.db #0xFE	; 254
	.db #0xFE	; 254
	.db #0xFE	; 254
	.db #0xFE	; 254
	.db #0xFE	; 254
	.db #0xFE	; 254
	.db #0xFE	; 254
	.db #0xEE	; 238
	.db #0xFE	; 254
	.db #0xF0	; 240
	.db #0xFE	; 254
	.db #0xFE	; 254
	.db #0xFE	; 254
	.db #0xFE	; 254
	.db #0xF0	; 240
	.db #0xFE	; 254
	.db #0xFE	; 254
	.db #0xFE	; 254
	.db #0xFE	; 254
	.db #0xE9	; 233
	.db #0xFE	; 254
	.db #0xFE	; 254
	.db #0xFE	; 254
	.db #0xFE	; 254
	.db #0xFE	; 254
	.db #0xFE	; 254
	.db #0xFE	; 254
	.db #0xC1	; 193
	.db #0xFE	; 254
	.db #0xFE	; 254
	.db #0x01	; 1
	.db #0x3F	; 63
	.db #0x03	; 3
	.db #0xE7	; 231
	.db #0xFE	; 254
	.db #0xFE	; 254
	.db #0xFE	; 254
	.db #0xFE	; 254
	.db #0xE4	; 228
	.db #0xFE	; 254
	.db #0xE6	; 230
	.db #0xFE	; 254
	.db #0xE7	; 231
	.db #0xFE	; 254
	.db #0xEB	; 235
	.db #0xFE	; 254
	.db #0xF0	; 240
	.db #0xFE	; 254
	.db #0xF2	; 242
	.db #0xFE	; 254
	.db #0xF3	; 243
	.db #0xFE	; 254
	.db #0xFE	; 254
	.db #0xFE	; 254
	.db #0xFE	; 254
	.db #0xFE	; 254
	.db #0xFE	; 254
	.db #0xFE	; 254
	.db #0xFE	; 254
	.db #0xFE	; 254
	.db #0xFE	; 254
	.db #0xFE	; 254
	.db #0xFE	; 254
	.db #0xFE	; 254
	.db #0xFE	; 254
	.db #0xFE	; 254
	.db #0xFE	; 254
	.db #0xF5	; 245
	.db #0xFE	; 254
	.db #0xB3	; 179
	.db #0xBE	; 190
	.db #0x01	; 1
	.db #0x3F	; 63
	.db #0x00	; 0
	.db #0xF5	; 245
	.db #0xFE	; 254
	.db #0xFE	; 254
	.db #0xFE	; 254
	.db #0xFE	; 254
	.db #0xFE	; 254
	.db #0xFE	; 254
	.db #0xFE	; 254
	.db #0xFE	; 254
	.db #0xFE	; 254
	.db #0xFE	; 254
	.db #0xC1	; 193
	.db #0xFE	; 254
	.db #0xFE	; 254
	.db #0xFE	; 254
	.db #0xFE	; 254
	.db #0xFE	; 254
	.db #0xFE	; 254
	.db #0xFE	; 254
	.db #0xFE	; 254
	.db #0xFE	; 254
	.db #0xFE	; 254
	.db #0xF8	; 248
	.db #0xFE	; 254
	.db #0xFE	; 254
	.db #0xFE	; 254
	.db #0xFE	; 254
	.db #0xFE	; 254
	.db #0xFE	; 254
	.db #0xFE	; 254
	.db #0xFE	; 254
	.db #0xFE	; 254
	.db #0xFE	; 254
	.db #0xF8	; 248
	.db #0xFE	; 254
	.db #0xFE	; 254
	.db #0xFE	; 254
	.db #0xFE	; 254
	.db #0xFE	; 254
	.db #0xFE	; 254
	.db #0xFE	; 254
	.db #0xC1	; 193
	.db #0xFE	; 254
	.db #0xEC	; 236
	.db #0xFE	; 254
	.db #0xFE	; 254
	.db #0xFE	; 254
	.db #0xFE	; 254
	.db #0xFE	; 254
	.db #0xFE	; 254
	.db #0xFE	; 254
	.db #0xFE	; 254
	.db #0xFE	; 254
	.db #0xFE	; 254
	.db #0xFE	; 254
	.db #0xFE	; 254
	.db #0xFE	; 254
	.db #0xFE	; 254
	.db #0xFE	; 254
	.db #0xFE	; 254
	.db #0xFE	; 254
	.db #0xFE	; 254
	.db #0xFE	; 254
	.db #0xC1	; 193
	.db #0xFE	; 254
	.db #0xF7	; 247
	.db #0xFE	; 254
	.db #0xFE	; 254
	.db #0xFE	; 254
	.db #0xFE	; 254
	.db #0xC1	; 193
	.db #0xFE	; 254
	.db #0xFE	; 254
	.db #0xFE	; 254
	.db #0xFE	; 254
	.db #0xF8	; 248
	.db #0xFE	; 254
	.db #0xFE	; 254
	.db #0xFE	; 254
	.db #0xFE	; 254
	.db #0xC1	; 193
	.db #0xFE	; 254
	.db #0xFE	; 254
	.db #0xFE	; 254
	.db #0xFE	; 254
	.db #0xFC	; 252
	.db #0xFE	; 254
	.db #0xFE	; 254
	.db #0xFE	; 254
	.db #0xFE	; 254
	.db #0xFE	; 254
	.db #0xFE	; 254
	.db #0xFE	; 254
	.db #0xFE	; 254
	.db #0xFE	; 254
	.db #0xFE	; 254
	.db #0xC1	; 193
	.db #0xFE	; 254
	.db #0xFE	; 254
	.db #0xFE	; 254
	.db #0xFE	; 254
	.db #0xFE	; 254
	.db #0xFE	; 254
	.db #0xFE	; 254
	.db #0xFE	; 254
	.db #0xFE	; 254
	.db #0xFE	; 254
	.db #0xF8	; 248
	.db #0xFE	; 254
	.db #0xFE	; 254
	.db #0xFE	; 254
	.db #0xFE	; 254
	.db #0xC1	; 193
	.db #0xFE	; 254
	.db #0xFE	; 254
	.db #0xFE	; 254
	.db #0xFE	; 254
	.db #0xF3	; 243
	.db #0xFE	; 254
	.db #0xFE	; 254
	.db #0xFE	; 254
	.db #0xFE	; 254
	.db #0xC1	; 193
	.db #0xFE	; 254
	.db #0xFE	; 254
	.db #0xFE	; 254
	.db #0xFE	; 254
	.db #0xF8	; 248
	.db #0xFE	; 254
	.db #0xFE	; 254
	.db #0xFE	; 254
	.db #0xFE	; 254
	.db #0xC1	; 193
	.db #0xFE	; 254
	.db #0xFE	; 254
	.db #0xFE	; 254
	.db #0xFE	; 254
	.db #0xF3	; 243
	.db #0xFE	; 254
	.db #0xFE	; 254
	.db #0xFE	; 254
	.db #0xFE	; 254
	.db #0xC1	; 193
	.db #0xFE	; 254
	.db #0xFE	; 254
	.db #0xFE	; 254
	.db #0xFE	; 254
	.db #0xF8	; 248
	.db #0xFE	; 254
	.db #0xFE	; 254
	.db #0xFE	; 254
	.db #0xFE	; 254
	.db #0xC1	; 193
	.db #0xFE	; 254
	.db #0xFE	; 254
	.db #0xFE	; 254
	.db #0xFE	; 254
	.db #0xF3	; 243
	.db #0xFE	; 254
	.db #0xFE	; 254
	.db #0xFE	; 254
	.db #0xFE	; 254
	.db #0xC1	; 193
	.db #0xFE	; 254
	.db #0xFE	; 254
	.db #0xFE	; 254
	.db #0xFE	; 254
	.db #0xF8	; 248
	.db #0xFE	; 254
	.db #0xFE	; 254
	.db #0xFE	; 254
	.db #0xFE	; 254
	.db #0xFE	; 254
	.db #0xFE	; 254
	.db #0xFE	; 254
	.db #0xF3	; 243
	.db #0xFE	; 254
	.db #0xF7	; 247
	.db #0xFE	; 254
	.db #0xFE	; 254
	.db #0xFE	; 254
	.db #0xFE	; 254
	.db #0xFE	; 254
	.db #0xFE	; 254
	.db #0xFE	; 254
	.db #0xFE	; 254
	.db #0xFE	; 254
	.db #0xFE	; 254
	.db #0xF0	; 240
	.db #0xFE	; 254
	.db #0xFE	; 254
	.db #0xFE	; 254
	.db #0xFE	; 254
	.db #0xFE	; 254
	.db #0xFE	; 254
	.db #0xFE	; 254
	.db #0xFE	; 254
	.db #0xFE	; 254
	.db #0xFE	; 254
	.db #0xFE	; 254
	.db #0xFE	; 254
	.db #0xFE	; 254
	.db #0xFE	; 254
	.db #0xFE	; 254
	.db #0xFE	; 254
	.db #0xFE	; 254
	.db #0xFE	; 254
	.db #0xFE	; 254
	.db #0xFE	; 254
	.db #0xFE	; 254
	.db #0xFE	; 254
	.db #0xFE	; 254
	.db #0xFE	; 254
	.db #0xFE	; 254
	.db #0xFE	; 254
	.db #0xFE	; 254
	.db #0xFE	; 254
	.db #0xFE	; 254
	.db #0xFE	; 254
	.db #0xFE	; 254
	.db #0xFE	; 254
	.db #0xFE	; 254
	.db #0xFE	; 254
	.db #0xC1	; 193
	.db #0xFE	; 254
	.db #0xFE	; 254
	.db #0xFE	; 254
	.db #0xFE	; 254
	.db #0xFE	; 254
	.db #0xFE	; 254
	.db #0xFE	; 254
	.db #0xFE	; 254
	.db #0xFE	; 254
	.db #0xFE	; 254
	.db #0x00	; 0
	.db #0xC1	; 193
	.db #0x00	; 0
	.db #0x00	; 0
_SONG_3:
	.db #0x04	; 4
	.db #0x07	; 7
	.db #0x00	; 0
	.db #0x00	; 0
	.db #0x3F	; 63
	.db #0x01	; 1
	.db #0x75	; 117	'u'
	.db #0x3F	; 63
	.db #0x02	; 2
	.db #0x75	; 117	'u'
	.db #0x3F	; 63
	.db #0x05	; 5
	.db #0xB5	; 181
	.db #0xBE	; 190
	.db #0x3F	; 63
	.db #0x01	; 1
	.db #0x75	; 117	'u'
	.db #0x3F	; 63
	.db #0x02	; 2
	.db #0x75	; 117	'u'
	.db #0x3F	; 63
	.db #0x05	; 5
	.db #0x75	; 117	'u'
	.db #0x3F	; 63
	.db #0x01	; 1
	.db #0x74	; 116	't'
	.db #0x3F	; 63
	.db #0x02	; 2
	.db #0x74	; 116	't'
	.db #0x3F	; 63
	.db #0x05	; 5
	.db #0xB4	; 180
	.db #0xBE	; 190
	.db #0x3F	; 63
	.db #0x01	; 1
	.db #0x74	; 116	't'
	.db #0x3F	; 63
	.db #0x02	; 2
	.db #0x74	; 116	't'
	.db #0x3F	; 63
	.db #0x05	; 5
	.db #0x74	; 116	't'
	.db #0x3F	; 63
	.db #0x01	; 1
	.db #0x75	; 117	'u'
	.db #0x3F	; 63
	.db #0x02	; 2
	.db #0x75	; 117	'u'
	.db #0x3F	; 63
	.db #0x05	; 5
	.db #0xB5	; 181
	.db #0xBE	; 190
	.db #0x3F	; 63
	.db #0x01	; 1
	.db #0x75	; 117	'u'
	.db #0x3F	; 63
	.db #0x02	; 2
	.db #0x75	; 117	'u'
	.db #0x3F	; 63
	.db #0x05	; 5
	.db #0x75	; 117	'u'
	.db #0x3F	; 63
	.db #0x01	; 1
	.db #0x77	; 119	'w'
	.db #0x3F	; 63
	.db #0x02	; 2
	.db #0x77	; 119	'w'
	.db #0x3F	; 63
	.db #0x05	; 5
	.db #0xB7	; 183
	.db #0x3F	; 63
	.db #0x01	; 1
	.db #0x75	; 117	'u'
	.db #0x3F	; 63
	.db #0x02	; 2
	.db #0x75	; 117	'u'
	.db #0x3F	; 63
	.db #0x05	; 5
	.db #0xB5	; 181
	.db #0x3F	; 63
	.db #0x01	; 1
	.db #0x75	; 117	'u'
	.db #0x3F	; 63
	.db #0x02	; 2
	.db #0x75	; 117	'u'
	.db #0x3F	; 63
	.db #0x05	; 5
	.db #0xB5	; 181
	.db #0xBE	; 190
	.db #0x3F	; 63
	.db #0x01	; 1
	.db #0x75	; 117	'u'
	.db #0x3F	; 63
	.db #0x02	; 2
	.db #0x75	; 117	'u'
	.db #0x3F	; 63
	.db #0x05	; 5
	.db #0x75	; 117	'u'
	.db #0x3F	; 63
	.db #0x01	; 1
	.db #0x74	; 116	't'
	.db #0x3F	; 63
	.db #0x02	; 2
	.db #0x74	; 116	't'
	.db #0x3F	; 63
	.db #0x05	; 5
	.db #0xB4	; 180
	.db #0xBE	; 190
	.db #0x3F	; 63
	.db #0x01	; 1
	.db #0x74	; 116	't'
	.db #0x3F	; 63
	.db #0x02	; 2
	.db #0x74	; 116	't'
	.db #0x3F	; 63
	.db #0x05	; 5
	.db #0x74	; 116	't'
	.db #0x3F	; 63
	.db #0x01	; 1
	.db #0x75	; 117	'u'
	.db #0x3F	; 63
	.db #0x02	; 2
	.db #0x75	; 117	'u'
	.db #0x3F	; 63
	.db #0x05	; 5
	.db #0xB5	; 181
	.db #0xBE	; 190
	.db #0x3F	; 63
	.db #0x01	; 1
	.db #0x75	; 117	'u'
	.db #0x3F	; 63
	.db #0x02	; 2
	.db #0x75	; 117	'u'
	.db #0x3F	; 63
	.db #0x05	; 5
	.db #0x75	; 117	'u'
	.db #0x3F	; 63
	.db #0x01	; 1
	.db #0x77	; 119	'w'
	.db #0x3F	; 63
	.db #0x02	; 2
	.db #0x77	; 119	'w'
	.db #0x3F	; 63
	.db #0x05	; 5
	.db #0xB7	; 183
	.db #0x3F	; 63
	.db #0x01	; 1
	.db #0x75	; 117	'u'
	.db #0x3F	; 63
	.db #0x02	; 2
	.db #0x75	; 117	'u'
	.db #0x3F	; 63
	.db #0x05	; 5
	.db #0xB5	; 181
	.db #0x3F	; 63
	.db #0x03	; 3
	.db #0x15	; 21
	.db #0x18	; 24
	.db #0x1A	; 26
	.db #0x1D	; 29
	.db #0x3F	; 63
	.db #0x04	; 4
	.db #0x1F	; 31
	.db #0x21	; 33
	.db #0x24	; 36
	.db #0x26	; 38
	.db #0x29	; 41
	.db #0x2B	; 43
	.db #0x2C	; 44
	.db #0x2D	; 45
	.db #0x2C	; 44
	.db #0x2B	; 43
	.db #0x29	; 41
	.db #0x26	; 38
	.db #0x3F	; 63
	.db #0x03	; 3
	.db #0x15	; 21
	.db #0x18	; 24
	.db #0x1A	; 26
	.db #0x1D	; 29
	.db #0x3F	; 63
	.db #0x04	; 4
	.db #0x1F	; 31
	.db #0x21	; 33
	.db #0x24	; 36
	.db #0x26	; 38
	.db #0x29	; 41
	.db #0x2B	; 43
	.db #0x2C	; 44
	.db #0x2D	; 45
	.db #0x2C	; 44
	.db #0x2B	; 43
	.db #0x29	; 41
	.db #0x26	; 38
	.db #0x3F	; 63
	.db #0x03	; 3
	.db #0x15	; 21
	.db #0x18	; 24
	.db #0x1A	; 26
	.db #0x1D	; 29
	.db #0x3F	; 63
	.db #0x04	; 4
	.db #0x1F	; 31
	.db #0x21	; 33
	.db #0x24	; 36
	.db #0x26	; 38
	.db #0x29	; 41
	.db #0x2B	; 43
	.db #0x2C	; 44
	.db #0x2D	; 45
	.db #0x2C	; 44
	.db #0x2B	; 43
	.db #0x29	; 41
	.db #0x26	; 38
	.db #0x3F	; 63
	.db #0x03	; 3
	.db #0x15	; 21
	.db #0x18	; 24
	.db #0x1A	; 26
	.db #0x1D	; 29
	.db #0x3F	; 63
	.db #0x04	; 4
	.db #0x1F	; 31
	.db #0x21	; 33
	.db #0x24	; 36
	.db #0x26	; 38
	.db #0x29	; 41
	.db #0x2B	; 43
	.db #0x2C	; 44
	.db #0x2D	; 45
	.db #0xBF	; 191
	.db #0x14	; 20
	.db #0x11	; 17
	.db #0x10	; 16
	.db #0x0F	; 15
	.db #0x4E	; 78	'N'
	.db #0x7E	; 126
	.db #0x3F	; 63
	.db #0x01	; 1
	.db #0x69	; 105	'i'
	.db #0x3F	; 63
	.db #0x02	; 2
	.db #0x69	; 105	'i'
	.db #0x81	; 129
	.db #0x3F	; 63
	.db #0x01	; 1
	.db #0x69	; 105	'i'
	.db #0x3F	; 63
	.db #0x02	; 2
	.db #0x69	; 105	'i'
	.db #0x41	; 65	'A'
	.db #0x3F	; 63
	.db #0x01	; 1
	.db #0x69	; 105	'i'
	.db #0x3F	; 63
	.db #0x02	; 2
	.db #0x69	; 105	'i'
	.db #0xC1	; 193
	.db #0x41	; 65	'A'
	.db #0x3F	; 63
	.db #0x01	; 1
	.db #0x69	; 105	'i'
	.db #0x3F	; 63
	.db #0x02	; 2
	.db #0x69	; 105	'i'
	.db #0x3F	; 63
	.db #0x01	; 1
	.db #0x69	; 105	'i'
	.db #0x3F	; 63
	.db #0x02	; 2
	.db #0x69	; 105	'i'
	.db #0x81	; 129
	.db #0x3F	; 63
	.db #0x01	; 1
	.db #0x69	; 105	'i'
	.db #0x3F	; 63
	.db #0x02	; 2
	.db #0x69	; 105	'i'
	.db #0x41	; 65	'A'
	.db #0x3F	; 63
	.db #0x01	; 1
	.db #0x69	; 105	'i'
	.db #0x3F	; 63
	.db #0x02	; 2
	.db #0xE9	; 233
	.db #0xFE	; 254
	.db #0x3F	; 63
	.db #0x01	; 1
	.db #0xA9	; 169
	.db #0x69	; 105	'i'
	.db #0x3F	; 63
	.db #0x02	; 2
	.db #0x69	; 105	'i'
	.db #0x81	; 129
	.db #0x3F	; 63
	.db #0x01	; 1
	.db #0x69	; 105	'i'
	.db #0x3F	; 63
	.db #0x02	; 2
	.db #0x69	; 105	'i'
	.db #0x41	; 65	'A'
	.db #0x3F	; 63
	.db #0x01	; 1
	.db #0x69	; 105	'i'
	.db #0x3F	; 63
	.db #0x02	; 2
	.db #0x69	; 105	'i'
	.db #0xC1	; 193
	.db #0x41	; 65	'A'
	.db #0x3F	; 63
	.db #0x01	; 1
	.db #0x69	; 105	'i'
	.db #0x3F	; 63
	.db #0x02	; 2
	.db #0x69	; 105	'i'
	.db #0x3F	; 63
	.db #0x01	; 1
	.db #0x69	; 105	'i'
	.db #0x3F	; 63
	.db #0x02	; 2
	.db #0x69	; 105	'i'
	.db #0x81	; 129
	.db #0x3F	; 63
	.db #0x01	; 1
	.db #0x69	; 105	'i'
	.db #0x3F	; 63
	.db #0x02	; 2
	.db #0x69	; 105	'i'
	.db #0x41	; 65	'A'
	.db #0x3F	; 63
	.db #0x01	; 1
	.db #0x69	; 105	'i'
	.db #0x3F	; 63
	.db #0x02	; 2
	.db #0xE9	; 233
	.db #0xFE	; 254
	.db #0x3F	; 63
	.db #0x01	; 1
	.db #0x69	; 105	'i'
	.db #0x3F	; 63
	.db #0x03	; 3
	.db #0xDA	; 218
	.db #0x3F	; 63
	.db #0x04	; 4
	.db #0x9A	; 154
	.db #0xBE	; 190
	.db #0x3F	; 63
	.db #0x03	; 3
	.db #0xE1	; 225
	.db #0x41	; 65	'A'
	.db #0x3F	; 63
	.db #0x04	; 4
	.db #0xE1	; 225
	.db #0x3F	; 63
	.db #0x03	; 3
	.db #0xDA	; 218
	.db #0x3F	; 63
	.db #0x04	; 4
	.db #0xDA	; 218
	.db #0x3F	; 63
	.db #0x03	; 3
	.db #0xDC	; 220
	.db #0xDD	; 221
	.db #0xDA	; 218
	.db #0x3F	; 63
	.db #0x04	; 4
	.db #0x9A	; 154
	.db #0xBE	; 190
	.db #0x3F	; 63
	.db #0x03	; 3
	.db #0xDA	; 218
	.db #0x41	; 65	'A'
	.db #0x3F	; 63
	.db #0x04	; 4
	.db #0xDA	; 218
	.db #0x3F	; 63
	.db #0x03	; 3
	.db #0xE1	; 225
	.db #0x3F	; 63
	.db #0x04	; 4
	.db #0xE1	; 225
	.db #0x3F	; 63
	.db #0x03	; 3
	.db #0xDC	; 220
	.db #0xDD	; 221
	.db #0x3F	; 63
	.db #0x04	; 4
	.db #0xE1	; 225
	.db #0xFE	; 254
	.db #0x41	; 65	'A'
	.db #0xDC	; 220
	.db #0xFE	; 254
	.db #0xFE	; 254
	.db #0x41	; 65	'A'
	.db #0x1A	; 26
	.db #0x1D	; 29
	.db #0x20	; 32
	.db #0x21	; 33
	.db #0x20	; 32
	.db #0x1D	; 29
	.db #0x1A	; 26
	.db #0x1D	; 29
	.db #0x20	; 32
	.db #0x21	; 33
	.db #0x20	; 32
	.db #0x1D	; 29
	.db #0x1A	; 26
	.db #0x1D	; 29
	.db #0x20	; 32
	.db #0x21	; 33
	.db #0x20	; 32
	.db #0x1D	; 29
	.db #0x1A	; 26
	.db #0x1D	; 29
	.db #0x20	; 32
	.db #0x21	; 33
	.db #0x1F	; 31
	.db #0x21	; 33
	.db #0x3F	; 63
	.db #0x03	; 3
	.db #0x20	; 32
	.db #0x1D	; 29
	.db #0x1A	; 26
	.db #0x1D	; 29
	.db #0x20	; 32
	.db #0x21	; 33
	.db #0x20	; 32
	.db #0x1D	; 29
	.db #0x3F	; 63
	.db #0x02	; 2
	.db #0x15	; 21
	.db #0x1A	; 26
	.db #0x21	; 33
	.db #0x26	; 38
	.db #0x81	; 129
	.db #0x26	; 38
	.db #0x21	; 33
	.db #0x1A	; 26
	.db #0x15	; 21
	.db #0x41	; 65	'A'
	.db #0x15	; 21
	.db #0x1A	; 26
	.db #0x21	; 33
	.db #0x26	; 38
	.db #0x41	; 65	'A'
	.db #0x15	; 21
	.db #0x1A	; 26
	.db #0x21	; 33
	.db #0x26	; 38
	.db #0x81	; 129
	.db #0x26	; 38
	.db #0x21	; 33
	.db #0x1A	; 26
	.db #0x15	; 21
	.db #0x15	; 21
	.db #0x1A	; 26
	.db #0x21	; 33
	.db #0x26	; 38
	.db #0x81	; 129
	.db #0x26	; 38
	.db #0x21	; 33
	.db #0x1A	; 26
	.db #0x15	; 21
	.db #0x41	; 65	'A'
	.db #0x15	; 21
	.db #0x1A	; 26
	.db #0x21	; 33
	.db #0x26	; 38
	.db #0x41	; 65	'A'
	.db #0x7E	; 126
	.db #0x1A	; 26
	.db #0x21	; 33
	.db #0x66	; 102	'f'
	.db #0x1A	; 26
	.db #0x21	; 33
	.db #0xA6	; 166
	.db #0x01	; 1
	.db #0x3F	; 63
	.db #0x03	; 3
	.db #0xDA	; 218
	.db #0x3F	; 63
	.db #0x04	; 4
	.db #0x9A	; 154
	.db #0xBE	; 190
	.db #0x3F	; 63
	.db #0x03	; 3
	.db #0xDA	; 218
	.db #0x41	; 65	'A'
	.db #0x3F	; 63
	.db #0x04	; 4
	.db #0xDA	; 218
	.db #0x3F	; 63
	.db #0x03	; 3
	.db #0xE1	; 225
	.db #0x3F	; 63
	.db #0x04	; 4
	.db #0xE1	; 225
	.db #0x3F	; 63
	.db #0x03	; 3
	.db #0xDC	; 220
	.db #0xDD	; 221
	.db #0x3F	; 63
	.db #0x04	; 4
	.db #0xE1	; 225
	.db #0xFE	; 254
	.db #0x41	; 65	'A'
	.db #0xDC	; 220
	.db #0xFE	; 254
	.db #0xFE	; 254
	.db #0x41	; 65	'A'
	.db #0x3F	; 63
	.db #0x00	; 0
	.db #0x95	; 149
	.db #0x95	; 149
	.db #0x61	; 97	'a'
	.db #0x53	; 83	'S'
	.db #0x54	; 84	'T'
	.db #0x95	; 149
	.db #0x95	; 149
	.db #0x98	; 152
	.db #0x98	; 152
	.db #0x58	; 88	'X'
	.db #0x8E	; 142
	.db #0x8E	; 142
	.db #0x4E	; 78	'N'
	.db #0x8E	; 142
	.db #0xBE	; 190
	.db #0x8C	; 140
	.db #0x8C	; 140
	.db #0x4C	; 76	'L'
	.db #0x8C	; 140
	.db #0xBE	; 190
	.db #0x8B	; 139
	.db #0x8B	; 139
	.db #0x4B	; 75	'K'
	.db #0x8B	; 139
	.db #0xBE	; 190
	.db #0x8A	; 138
	.db #0x8A	; 138
	.db #0x91	; 145
	.db #0x91	; 145
	.db #0x89	; 137
	.db #0x89	; 137
	.db #0x49	; 73	'I'
	.db #0x89	; 137
	.db #0xBE	; 190
	.db #0x89	; 137
	.db #0x89	; 137
	.db #0x49	; 73	'I'
	.db #0x89	; 137
	.db #0xBE	; 190
	.db #0x89	; 137
	.db #0x89	; 137
	.db #0x49	; 73	'I'
	.db #0x89	; 137
	.db #0xBE	; 190
	.db #0x89	; 137
	.db #0x89	; 137
	.db #0x8C	; 140
	.db #0x8C	; 140
	.db #0x3F	; 63
	.db #0x02	; 2
	.db #0xA9	; 169
	.db #0x69	; 105	'i'
	.db #0x69	; 105	'i'
	.db #0xA9	; 169
	.db #0x69	; 105	'i'
	.db #0xA8	; 168
	.db #0xA9	; 169
	.db #0xA9	; 169
	.db #0xA9	; 169
	.db #0xBE	; 190
	.db #0xA9	; 169
	.db #0x69	; 105	'i'
	.db #0x69	; 105	'i'
	.db #0xA9	; 169
	.db #0x69	; 105	'i'
	.db #0xAB	; 171
	.db #0xAB	; 171
	.db #0xAB	; 171
	.db #0xA9	; 169
	.db #0xBE	; 190
	.db #0xA9	; 169
	.db #0x69	; 105	'i'
	.db #0x69	; 105	'i'
	.db #0xA9	; 169
	.db #0x69	; 105	'i'
	.db #0xA8	; 168
	.db #0xA9	; 169
	.db #0xA9	; 169
	.db #0xA9	; 169
	.db #0xBE	; 190
	.db #0xA9	; 169
	.db #0x69	; 105	'i'
	.db #0x69	; 105	'i'
	.db #0xA9	; 169
	.db #0x69	; 105	'i'
	.db #0xAB	; 171
	.db #0xAB	; 171
	.db #0xAB	; 171
	.db #0xA9	; 169
	.db #0xBE	; 190
	.db #0xA9	; 169
	.db #0x69	; 105	'i'
	.db #0x69	; 105	'i'
	.db #0xA9	; 169
	.db #0x69	; 105	'i'
	.db #0xA8	; 168
	.db #0xA9	; 169
	.db #0xA9	; 169
	.db #0xA9	; 169
	.db #0xBE	; 190
	.db #0xA9	; 169
	.db #0x69	; 105	'i'
	.db #0x69	; 105	'i'
	.db #0xA9	; 169
	.db #0x69	; 105	'i'
	.db #0xAB	; 171
	.db #0xAB	; 171
	.db #0xAB	; 171
	.db #0xA9	; 169
	.db #0xBE	; 190
	.db #0xA9	; 169
	.db #0x69	; 105	'i'
	.db #0x69	; 105	'i'
	.db #0xA9	; 169
	.db #0x69	; 105	'i'
	.db #0xA8	; 168
	.db #0xA9	; 169
	.db #0xA9	; 169
	.db #0xA9	; 169
	.db #0xBE	; 190
	.db #0xA9	; 169
	.db #0x69	; 105	'i'
	.db #0x69	; 105	'i'
	.db #0xA9	; 169
	.db #0x69	; 105	'i'
	.db #0xAB	; 171
	.db #0xAB	; 171
	.db #0x6B	; 107	'k'
	.db #0xAD	; 173
	.db #0xAD	; 173
	.db #0x00	; 0
	.db #0x3F	; 63
	.db #0x00	; 0
	.db #0xCE	; 206
	.db #0xFE	; 254
	.db #0xFE	; 254
	.db #0xCC	; 204
	.db #0xFE	; 254
	.db #0xFE	; 254
	.db #0xCB	; 203
	.db #0xFE	; 254
	.db #0xFE	; 254
	.db #0xCA	; 202
	.db #0xD1	; 209
	.db #0xCE	; 206
	.db #0xFE	; 254
	.db #0xFE	; 254
	.db #0xCC	; 204
	.db #0xFE	; 254
	.db #0xFE	; 254
	.db #0xCB	; 203
	.db #0xFE	; 254
	.db #0xFE	; 254
	.db #0xCA	; 202
	.db #0xD1	; 209
	.db #0xCE	; 206
	.db #0xFE	; 254
	.db #0xFE	; 254
	.db #0xCC	; 204
	.db #0xFE	; 254
	.db #0xFE	; 254
	.db #0xCB	; 203
	.db #0xFE	; 254
	.db #0xFE	; 254
	.db #0xCA	; 202
	.db #0xD1	; 209
	.db #0x8E	; 142
	.db #0x8E	; 142
	.db #0x8E	; 142
	.db #0x4E	; 78	'N'
	.db #0x4C	; 76	'L'
	.db #0x8C	; 140
	.db #0x8C	; 140
	.db #0x8C	; 140
	.db #0x8C	; 140
	.db #0x8B	; 139
	.db #0x8B	; 139
	.db #0x8B	; 139
	.db #0x4B	; 75	'K'
	.db #0x8A	; 138
	.db #0xBE	; 190
	.db #0x8A	; 138
	.db #0x91	; 145
	.db #0x91	; 145
	.db #0x8E	; 142
	.db #0x8E	; 142
	.db #0x8E	; 142
	.db #0x4E	; 78	'N'
	.db #0x4C	; 76	'L'
	.db #0x8C	; 140
	.db #0x8C	; 140
	.db #0x8C	; 140
	.db #0x8C	; 140
	.db #0x8B	; 139
	.db #0x8B	; 139
	.db #0x8B	; 139
	.db #0x4B	; 75	'K'
	.db #0x8A	; 138
	.db #0xBE	; 190
	.db #0x8A	; 138
	.db #0x91	; 145
	.db #0x91	; 145
	.db #0x4E	; 78	'N'
	.db #0x4E	; 78	'N'
	.db #0x58	; 88	'X'
	.db #0x4E	; 78	'N'
	.db #0x5A	; 90	'Z'
	.db #0x4E	; 78	'N'
	.db #0x4C	; 76	'L'
	.db #0x8C	; 140
	.db #0x4C	; 76	'L'
	.db #0x58	; 88	'X'
	.db #0x4C	; 76	'L'
	.db #0x5A	; 90	'Z'
	.db #0x4C	; 76	'L'
	.db #0x4C	; 76	'L'
	.db #0x8B	; 139
	.db #0x4B	; 75	'K'
	.db #0x58	; 88	'X'
	.db #0x4B	; 75	'K'
	.db #0x5A	; 90	'Z'
	.db #0x4B	; 75	'K'
	.db #0x4B	; 75	'K'
	.db #0x8A	; 138
	.db #0x4A	; 74	'J'
	.db #0x58	; 88	'X'
	.db #0x4A	; 74	'J'
	.db #0x5A	; 90	'Z'
	.db #0x4A	; 74	'J'
	.db #0x5D	; 93
	.db #0x4A	; 74	'J'
	.db #0x4E	; 78	'N'
	.db #0x4E	; 78	'N'
	.db #0x58	; 88	'X'
	.db #0x4E	; 78	'N'
	.db #0x5A	; 90	'Z'
	.db #0x4E	; 78	'N'
	.db #0x4C	; 76	'L'
	.db #0x8C	; 140
	.db #0x4C	; 76	'L'
	.db #0x58	; 88	'X'
	.db #0x4C	; 76	'L'
	.db #0x5A	; 90	'Z'
	.db #0x4C	; 76	'L'
	.db #0x4C	; 76	'L'
	.db #0x8B	; 139
	.db #0x4B	; 75	'K'
	.db #0x58	; 88	'X'
	.db #0x4B	; 75	'K'
	.db #0x5A	; 90	'Z'
	.db #0x4B	; 75	'K'
	.db #0x4B	; 75	'K'
	.db #0x8A	; 138
	.db #0x4A	; 74	'J'
	.db #0x58	; 88	'X'
	.db #0x4A	; 74	'J'
	.db #0x5A	; 90	'Z'
	.db #0x4A	; 74	'J'
	.db #0x5D	; 93
	.db #0x4A	; 74	'J'
	.db #0x89	; 137
	.db #0x89	; 137
	.db #0x55	; 85	'U'
	.db #0x47	; 71	'G'
	.db #0x48	; 72	'H'
	.db #0x89	; 137
	.db #0x49	; 73	'I'
	.db #0x55	; 85	'U'
	.db #0x49	; 73	'I'
	.db #0x55	; 85	'U'
	.db #0x49	; 73	'I'
	.db #0x47	; 71	'G'
	.db #0x48	; 72	'H'
	.db #0x89	; 137
	.db #0x89	; 137
	.db #0x55	; 85	'U'
	.db #0x47	; 71	'G'
	.db #0x48	; 72	'H'
	.db #0x89	; 137
	.db #0x89	; 137
	.db #0x8C	; 140
	.db #0x8C	; 140
	.db #0x4C	; 76	'L'
	.db #0x4E	; 78	'N'
	.db #0x4E	; 78	'N'
	.db #0x58	; 88	'X'
	.db #0x4E	; 78	'N'
	.db #0x5A	; 90	'Z'
	.db #0x4E	; 78	'N'
	.db #0x4C	; 76	'L'
	.db #0x8C	; 140
	.db #0x4C	; 76	'L'
	.db #0x58	; 88	'X'
	.db #0x4C	; 76	'L'
	.db #0x5A	; 90	'Z'
	.db #0x4C	; 76	'L'
	.db #0x4C	; 76	'L'
	.db #0x8B	; 139
	.db #0x4B	; 75	'K'
	.db #0x58	; 88	'X'
	.db #0x4B	; 75	'K'
	.db #0x5A	; 90	'Z'
	.db #0x4B	; 75	'K'
	.db #0x4B	; 75	'K'
	.db #0x8A	; 138
	.db #0x4A	; 74	'J'
	.db #0x58	; 88	'X'
	.db #0x4A	; 74	'J'
	.db #0x5A	; 90	'Z'
	.db #0x4A	; 74	'J'
	.db #0x5D	; 93
	.db #0x4A	; 74	'J'
	.db #0x4E	; 78	'N'
	.db #0x4E	; 78	'N'
	.db #0x58	; 88	'X'
	.db #0x4E	; 78	'N'
	.db #0x5A	; 90	'Z'
	.db #0x4E	; 78	'N'
	.db #0x4C	; 76	'L'
	.db #0x8C	; 140
	.db #0x4C	; 76	'L'
	.db #0x58	; 88	'X'
	.db #0x4C	; 76	'L'
	.db #0x5A	; 90	'Z'
	.db #0x4C	; 76	'L'
	.db #0x4C	; 76	'L'
	.db #0x8B	; 139
	.db #0x4B	; 75	'K'
	.db #0x58	; 88	'X'
	.db #0x4B	; 75	'K'
	.db #0x5A	; 90	'Z'
	.db #0x4B	; 75	'K'
	.db #0x4B	; 75	'K'
	.db #0x8A	; 138
	.db #0x4A	; 74	'J'
	.db #0x58	; 88	'X'
	.db #0x4A	; 74	'J'
	.db #0x5A	; 90	'Z'
	.db #0x4A	; 74	'J'
	.db #0x5D	; 93
	.db #0x4A	; 74	'J'
	.db #0x89	; 137
	.db #0x89	; 137
	.db #0x55	; 85	'U'
	.db #0x47	; 71	'G'
	.db #0x48	; 72	'H'
	.db #0x89	; 137
	.db #0x49	; 73	'I'
	.db #0x55	; 85	'U'
	.db #0x49	; 73	'I'
	.db #0x55	; 85	'U'
	.db #0x49	; 73	'I'
	.db #0x47	; 71	'G'
	.db #0x48	; 72	'H'
	.db #0x89	; 137
	.db #0x89	; 137
	.db #0x55	; 85	'U'
	.db #0x47	; 71	'G'
	.db #0x48	; 72	'H'
	.db #0x89	; 137
	.db #0x89	; 137
	.db #0x8C	; 140
	.db #0x8C	; 140
	.db #0x4C	; 76	'L'
	.db #0xBF	; 191
	.db #0x14	; 20
	.db #0xCE	; 206
	.db #0xFE	; 254
	.db #0xFE	; 254
	.db #0xCC	; 204
	.db #0xFE	; 254
	.db #0xFE	; 254
	.db #0xCB	; 203
	.db #0xFE	; 254
	.db #0xFE	; 254
	.db #0xCA	; 202
	.db #0x11	; 17
	.db #0x10	; 16
	.db #0x0F	; 15
	.db #0x0E	; 14
	.db #0x0D	; 13
	.db #0x0C	; 12
	.db #0x0B	; 11
	.db #0x0A	; 10
	.db #0xC9	; 201
	.db #0xFE	; 254
	.db #0xFE	; 254
	.db #0xC9	; 201
	.db #0xFE	; 254
	.db #0xFE	; 254
	.db #0xC9	; 201
	.db #0xFE	; 254
	.db #0xFE	; 254
	.db #0xC9	; 201
	.db #0x8C	; 140
	.db #0x0D	; 13
	.db #0x0E	; 14
	.db #0x0F	; 15
	.db #0x10	; 16
	.db #0x3F	; 63
	.db #0x00	; 0
	.db #0x4E	; 78	'N'
	.db #0x4E	; 78	'N'
	.db #0x58	; 88	'X'
	.db #0x4E	; 78	'N'
	.db #0x5A	; 90	'Z'
	.db #0x4E	; 78	'N'
	.db #0x4C	; 76	'L'
	.db #0x8C	; 140
	.db #0x4C	; 76	'L'
	.db #0x58	; 88	'X'
	.db #0x4C	; 76	'L'
	.db #0x5A	; 90	'Z'
	.db #0x4C	; 76	'L'
	.db #0x4C	; 76	'L'
	.db #0x8B	; 139
	.db #0x4B	; 75	'K'
	.db #0x58	; 88	'X'
	.db #0x4B	; 75	'K'
	.db #0x5A	; 90	'Z'
	.db #0x4B	; 75	'K'
	.db #0x4B	; 75	'K'
	.db #0x8A	; 138
	.db #0x4A	; 74	'J'
	.db #0x58	; 88	'X'
	.db #0x4A	; 74	'J'
	.db #0x5A	; 90	'Z'
	.db #0x4A	; 74	'J'
	.db #0x5D	; 93
	.db #0x4A	; 74	'J'
	.db #0x4E	; 78	'N'
	.db #0x4E	; 78	'N'
	.db #0x58	; 88	'X'
	.db #0x4E	; 78	'N'
	.db #0x5A	; 90	'Z'
	.db #0x4E	; 78	'N'
	.db #0x4C	; 76	'L'
	.db #0x8C	; 140
	.db #0x4C	; 76	'L'
	.db #0x58	; 88	'X'
	.db #0x4C	; 76	'L'
	.db #0x5A	; 90	'Z'
	.db #0x4C	; 76	'L'
	.db #0x4C	; 76	'L'
	.db #0x8B	; 139
	.db #0x4B	; 75	'K'
	.db #0x58	; 88	'X'
	.db #0x4B	; 75	'K'
	.db #0x5A	; 90	'Z'
	.db #0x4B	; 75	'K'
	.db #0x4B	; 75	'K'
	.db #0x8A	; 138
	.db #0x4A	; 74	'J'
	.db #0x58	; 88	'X'
	.db #0x4A	; 74	'J'
	.db #0x5A	; 90	'Z'
	.db #0x4A	; 74	'J'
	.db #0x5D	; 93
	.db #0x4A	; 74	'J'
	.db #0x4E	; 78	'N'
	.db #0x4E	; 78	'N'
	.db #0x58	; 88	'X'
	.db #0x4E	; 78	'N'
	.db #0x5A	; 90	'Z'
	.db #0x4E	; 78	'N'
	.db #0x4C	; 76	'L'
	.db #0x8C	; 140
	.db #0x4C	; 76	'L'
	.db #0x58	; 88	'X'
	.db #0x4C	; 76	'L'
	.db #0x5A	; 90	'Z'
	.db #0x4C	; 76	'L'
	.db #0x4C	; 76	'L'
	.db #0x8B	; 139
	.db #0x4B	; 75	'K'
	.db #0x58	; 88	'X'
	.db #0x4B	; 75	'K'
	.db #0x5A	; 90	'Z'
	.db #0x4B	; 75	'K'
	.db #0x4B	; 75	'K'
	.db #0x8A	; 138
	.db #0x4A	; 74	'J'
	.db #0x58	; 88	'X'
	.db #0x4A	; 74	'J'
	.db #0x5A	; 90	'Z'
	.db #0x4A	; 74	'J'
	.db #0x5D	; 93
	.db #0x4A	; 74	'J'
	.db #0x4E	; 78	'N'
	.db #0x4E	; 78	'N'
	.db #0x58	; 88	'X'
	.db #0x4E	; 78	'N'
	.db #0x5A	; 90	'Z'
	.db #0x4E	; 78	'N'
	.db #0x4C	; 76	'L'
	.db #0x8C	; 140
	.db #0x4C	; 76	'L'
	.db #0x58	; 88	'X'
	.db #0x4C	; 76	'L'
	.db #0x5A	; 90	'Z'
	.db #0x4C	; 76	'L'
	.db #0x4C	; 76	'L'
	.db #0x8B	; 139
	.db #0x4B	; 75	'K'
	.db #0x58	; 88	'X'
	.db #0x4B	; 75	'K'
	.db #0x5A	; 90	'Z'
	.db #0x4B	; 75	'K'
	.db #0x4B	; 75	'K'
	.db #0x8A	; 138
	.db #0x4A	; 74	'J'
	.db #0x58	; 88	'X'
	.db #0x4A	; 74	'J'
	.db #0x4C	; 76	'L'
	.db #0x4C	; 76	'L'
	.db #0x58	; 88	'X'
	.db #0x4C	; 76	'L'
	.db #0x00	; 0
	.db #0x3F	; 63
	.db #0x04	; 4
	.db #0x26	; 38
	.db #0x29	; 41
	.db #0x2C	; 44
	.db #0x2D	; 45
	.db #0x2C	; 44
	.db #0x29	; 41
	.db #0x26	; 38
	.db #0x29	; 41
	.db #0x2C	; 44
	.db #0x2D	; 45
	.db #0x2C	; 44
	.db #0x29	; 41
	.db #0x26	; 38
	.db #0x29	; 41
	.db #0x2C	; 44
	.db #0x2D	; 45
	.db #0x25	; 37
	.db #0x26	; 38
	.db #0x29	; 41
	.db #0x2D	; 45
	.db #0x29	; 41
	.db #0x26	; 38
	.db #0x25	; 37
	.db #0x26	; 38
	.db #0x29	; 41
	.db #0x2D	; 45
	.db #0x29	; 41
	.db #0x26	; 38
	.db #0x25	; 37
	.db #0x26	; 38
	.db #0x29	; 41
	.db #0x2D	; 45
	.db #0x23	; 35
	.db #0x26	; 38
	.db #0x29	; 41
	.db #0x2D	; 45
	.db #0x29	; 41
	.db #0x26	; 38
	.db #0x23	; 35
	.db #0x26	; 38
	.db #0x29	; 41
	.db #0x2D	; 45
	.db #0x29	; 41
	.db #0x26	; 38
	.db #0x23	; 35
	.db #0x26	; 38
	.db #0x29	; 41
	.db #0x2D	; 45
	.db #0x22	; 34
	.db #0x26	; 38
	.db #0x29	; 41
	.db #0x2D	; 45
	.db #0x29	; 41
	.db #0x26	; 38
	.db #0x22	; 34
	.db #0x26	; 38
	.db #0x29	; 41
	.db #0x2D	; 45
	.db #0x29	; 41
	.db #0x26	; 38
	.db #0x22	; 34
	.db #0x26	; 38
	.db #0x29	; 41
	.db #0x2D	; 45
	.db #0x26	; 38
	.db #0x29	; 41
	.db #0x2C	; 44
	.db #0x2D	; 45
	.db #0x2C	; 44
	.db #0x29	; 41
	.db #0x26	; 38
	.db #0x29	; 41
	.db #0x2C	; 44
	.db #0x2D	; 45
	.db #0x2C	; 44
	.db #0x29	; 41
	.db #0x26	; 38
	.db #0x29	; 41
	.db #0x2C	; 44
	.db #0x2D	; 45
	.db #0x25	; 37
	.db #0x26	; 38
	.db #0x29	; 41
	.db #0x2D	; 45
	.db #0x29	; 41
	.db #0x26	; 38
	.db #0x25	; 37
	.db #0x26	; 38
	.db #0x29	; 41
	.db #0x2D	; 45
	.db #0x29	; 41
	.db #0x26	; 38
	.db #0x25	; 37
	.db #0x26	; 38
	.db #0x29	; 41
	.db #0x2D	; 45
	.db #0x23	; 35
	.db #0x26	; 38
	.db #0x29	; 41
	.db #0x2D	; 45
	.db #0x29	; 41
	.db #0x26	; 38
	.db #0x23	; 35
	.db #0x26	; 38
	.db #0x29	; 41
	.db #0x2D	; 45
	.db #0x29	; 41
	.db #0x26	; 38
	.db #0x23	; 35
	.db #0x26	; 38
	.db #0x29	; 41
	.db #0x2D	; 45
	.db #0x22	; 34
	.db #0x26	; 38
	.db #0x29	; 41
	.db #0x2D	; 45
	.db #0x29	; 41
	.db #0x26	; 38
	.db #0x22	; 34
	.db #0x26	; 38
	.db #0x29	; 41
	.db #0x2D	; 45
	.db #0x29	; 41
	.db #0x26	; 38
	.db #0x22	; 34
	.db #0x26	; 38
	.db #0x29	; 41
	.db #0x2D	; 45
	.db #0x26	; 38
	.db #0x29	; 41
	.db #0x2C	; 44
	.db #0x2D	; 45
	.db #0x2C	; 44
	.db #0x29	; 41
	.db #0x26	; 38
	.db #0x29	; 41
	.db #0x2C	; 44
	.db #0x2D	; 45
	.db #0x2C	; 44
	.db #0x29	; 41
	.db #0x26	; 38
	.db #0x29	; 41
	.db #0x2C	; 44
	.db #0x2D	; 45
	.db #0x25	; 37
	.db #0x26	; 38
	.db #0x29	; 41
	.db #0x2D	; 45
	.db #0x29	; 41
	.db #0x26	; 38
	.db #0x25	; 37
	.db #0x26	; 38
	.db #0x29	; 41
	.db #0x2D	; 45
	.db #0x29	; 41
	.db #0x26	; 38
	.db #0x25	; 37
	.db #0x26	; 38
	.db #0x29	; 41
	.db #0x2D	; 45
	.db #0x23	; 35
	.db #0x26	; 38
	.db #0x29	; 41
	.db #0x2D	; 45
	.db #0x29	; 41
	.db #0x26	; 38
	.db #0x23	; 35
	.db #0x26	; 38
	.db #0x29	; 41
	.db #0x2D	; 45
	.db #0x29	; 41
	.db #0x26	; 38
	.db #0x23	; 35
	.db #0x26	; 38
	.db #0x29	; 41
	.db #0x2D	; 45
	.db #0x22	; 34
	.db #0x26	; 38
	.db #0x29	; 41
	.db #0x2D	; 45
	.db #0x29	; 41
	.db #0x26	; 38
	.db #0x22	; 34
	.db #0x26	; 38
	.db #0x29	; 41
	.db #0x2D	; 45
	.db #0x29	; 41
	.db #0x26	; 38
	.db #0x22	; 34
	.db #0x26	; 38
	.db #0x29	; 41
	.db #0x2D	; 45
	.db #0x3F	; 63
	.db #0x03	; 3
	.db #0x4E	; 78	'N'
	.db #0x51	; 81	'Q'
	.db #0x53	; 83	'S'
	.db #0x54	; 84	'T'
	.db #0x55	; 85	'U'
	.db #0x58	; 88	'X'
	.db #0x5A	; 90	'Z'
	.db #0x5D	; 93
	.db #0x6C	; 108	'l'
	.db #0x6D	; 109	'm'
	.db #0x69	; 105	'i'
	.db #0x66	; 102	'f'
	.db #0x60	; 96
	.db #0x61	; 97	'a'
	.db #0x5D	; 93
	.db #0x5A	; 90	'Z'
	.db #0x54	; 84	'T'
	.db #0x55	; 85	'U'
	.db #0x58	; 88	'X'
	.db #0x5A	; 90	'Z'
	.db #0x5D	; 93
	.db #0x60	; 96
	.db #0x61	; 97	'a'
	.db #0x66	; 102	'f'
	.db #0x6C	; 108	'l'
	.db #0x6D	; 109	'm'
	.db #0x69	; 105	'i'
	.db #0x66	; 102	'f'
	.db #0x60	; 96
	.db #0x61	; 97	'a'
	.db #0x5D	; 93
	.db #0x5A	; 90	'Z'
	.db #0xE6	; 230
	.db #0x3F	; 63
	.db #0x04	; 4
	.db #0xA6	; 166
	.db #0xBE	; 190
	.db #0x3F	; 63
	.db #0x03	; 3
	.db #0xED	; 237
	.db #0x41	; 65	'A'
	.db #0x3F	; 63
	.db #0x04	; 4
	.db #0xED	; 237
	.db #0x3F	; 63
	.db #0x03	; 3
	.db #0xE6	; 230
	.db #0x3F	; 63
	.db #0x04	; 4
	.db #0xA6	; 166
	.db #0xBE	; 190
	.db #0x3F	; 63
	.db #0x03	; 3
	.db #0xA8	; 168
	.db #0xBE	; 190
	.db #0x3F	; 63
	.db #0x04	; 4
	.db #0xA8	; 168
	.db #0x3F	; 63
	.db #0x03	; 3
	.db #0xA9	; 169
	.db #0xBE	; 190
	.db #0x3F	; 63
	.db #0x04	; 4
	.db #0x69	; 105	'i'
	.db #0x3F	; 63
	.db #0x03	; 3
	.db #0xDA	; 218
	.db #0x95	; 149
	.db #0x58	; 88	'X'
	.db #0xDC	; 220
	.db #0x9D	; 157
	.db #0x01	; 1
	.db #0x3F	; 63
	.db #0x04	; 4
	.db #0x1F	; 31
	.db #0x3F	; 63
	.db #0x03	; 3
	.db #0x61	; 97	'a'
	.db #0x7E	; 126
	.db #0x3F	; 63
	.db #0x04	; 4
	.db #0x1F	; 31
	.db #0x3F	; 63
	.db #0x03	; 3
	.db #0xE1	; 225
	.db #0xFE	; 254
	.db #0x3F	; 63
	.db #0x04	; 4
	.db #0xA1	; 161
	.db #0x3F	; 63
	.db #0x03	; 3
	.db #0x5A	; 90	'Z'
	.db #0x5D	; 93
	.db #0x5F	; 95
	.db #0x61	; 97	'a'
	.db #0x64	; 100	'd'
	.db #0x66	; 102	'f'
	.db #0x69	; 105	'i'
	.db #0x6B	; 107	'k'
	.db #0xE1	; 225
	.db #0x9C	; 156
	.db #0x5D	; 93
	.db #0x9A	; 154
	.db #0x5A	; 90	'Z'
	.db #0x5D	; 93
	.db #0x5A	; 90	'Z'
	.db #0x9A	; 154
	.db #0x5A	; 90	'Z'
	.db #0x7E	; 126
	.db #0x3F	; 63
	.db #0x04	; 4
	.db #0x1F	; 31
	.db #0x3F	; 63
	.db #0x03	; 3
	.db #0xE1	; 225
	.db #0xFE	; 254
	.db #0x3F	; 63
	.db #0x04	; 4
	.db #0xE1	; 225
	.db #0xC1	; 193
	.db #0xFE	; 254
	.db #0x3F	; 63
	.db #0x03	; 3
	.db #0xE8	; 232
	.db #0x3F	; 63
	.db #0x04	; 4
	.db #0xA8	; 168
	.db #0xBE	; 190
	.db #0x3F	; 63
	.db #0x03	; 3
	.db #0xE1	; 225
	.db #0x41	; 65	'A'
	.db #0x3F	; 63
	.db #0x04	; 4
	.db #0xE1	; 225
	.db #0x3F	; 63
	.db #0x03	; 3
	.db #0x15	; 21
	.db #0x18	; 24
	.db #0x1A	; 26
	.db #0x1D	; 29
	.db #0x3F	; 63
	.db #0x04	; 4
	.db #0x1F	; 31
	.db #0x21	; 33
	.db #0x24	; 36
	.db #0x26	; 38
	.db #0x29	; 41
	.db #0x2B	; 43
	.db #0x2C	; 44
	.db #0x2D	; 45
	.db #0x2C	; 44
	.db #0x2B	; 43
	.db #0x29	; 41
	.db #0x26	; 38
	.db #0x3F	; 63
	.db #0x03	; 3
	.db #0x15	; 21
	.db #0x18	; 24
	.db #0x1A	; 26
	.db #0x1D	; 29
	.db #0x3F	; 63
	.db #0x04	; 4
	.db #0x1F	; 31
	.db #0x21	; 33
	.db #0x24	; 36
	.db #0x26	; 38
	.db #0x29	; 41
	.db #0x2B	; 43
	.db #0x2C	; 44
	.db #0xAD	; 173
	.db #0x01	; 1
	.db #0x3F	; 63
	.db #0x03	; 3
	.db #0x1A	; 26
	.db #0x1D	; 29
	.db #0x20	; 32
	.db #0x21	; 33
	.db #0x20	; 32
	.db #0x1D	; 29
	.db #0x1A	; 26
	.db #0x1D	; 29
	.db #0x20	; 32
	.db #0x21	; 33
	.db #0x20	; 32
	.db #0x1D	; 29
	.db #0x1A	; 26
	.db #0x1D	; 29
	.db #0x20	; 32
	.db #0x21	; 33
	.db #0x3F	; 63
	.db #0x04	; 4
	.db #0x20	; 32
	.db #0x1D	; 29
	.db #0x1A	; 26
	.db #0x1D	; 29
	.db #0x20	; 32
	.db #0x21	; 33
	.db #0x20	; 32
	.db #0x1D	; 29
	.db #0x1A	; 26
	.db #0x1D	; 29
	.db #0x20	; 32
	.db #0x21	; 33
	.db #0x20	; 32
	.db #0x1D	; 29
	.db #0x1A	; 26
	.db #0xC1	; 193
	.db #0xFE	; 254
	.db #0xFE	; 254
	.db #0xFE	; 254
	.db #0xFE	; 254
	.db #0xFE	; 254
	.db #0xFE	; 254
	.db #0x01	; 1
	.db #0x3F	; 63
	.db #0x03	; 3
	.db #0xE1	; 225
	.db #0x9C	; 156
	.db #0x5D	; 93
	.db #0x9A	; 154
	.db #0x5A	; 90	'Z'
	.db #0x5D	; 93
	.db #0x5A	; 90	'Z'
	.db #0x9A	; 154
	.db #0x5A	; 90	'Z'
	.db #0x7E	; 126
	.db #0x3F	; 63
	.db #0x04	; 4
	.db #0x1F	; 31
	.db #0x3F	; 63
	.db #0x03	; 3
	.db #0xE1	; 225
	.db #0xFE	; 254
	.db #0x3F	; 63
	.db #0x04	; 4
	.db #0xE1	; 225
	.db #0xC1	; 193
	.db #0xFE	; 254
	.db #0x3F	; 63
	.db #0x03	; 3
	.db #0xE8	; 232
	.db #0x3F	; 63
	.db #0x04	; 4
	.db #0xA8	; 168
	.db #0xBE	; 190
	.db #0x3F	; 63
	.db #0x03	; 3
	.db #0xE1	; 225
	.db #0x41	; 65	'A'
	.db #0x3F	; 63
	.db #0x04	; 4
	.db #0xE1	; 225
	.db #0x3F	; 63
	.db #0x03	; 3
	.db #0x15	; 21
	.db #0x18	; 24
	.db #0x1A	; 26
	.db #0x1D	; 29
	.db #0x3F	; 63
	.db #0x04	; 4
	.db #0x1F	; 31
	.db #0x21	; 33
	.db #0x24	; 36
	.db #0x26	; 38
	.db #0x29	; 41
	.db #0x2B	; 43
	.db #0x2C	; 44
	.db #0x2D	; 45
	.db #0x2C	; 44
	.db #0x2B	; 43
	.db #0x29	; 41
	.db #0x26	; 38
	.db #0x3F	; 63
	.db #0x03	; 3
	.db #0x15	; 21
	.db #0x18	; 24
	.db #0x1A	; 26
	.db #0x1D	; 29
	.db #0x3F	; 63
	.db #0x04	; 4
	.db #0x1F	; 31
	.db #0x21	; 33
	.db #0x24	; 36
	.db #0x26	; 38
	.db #0x29	; 41
	.db #0x2B	; 43
	.db #0x2C	; 44
	.db #0xAD	; 173
	.db #0x01	; 1
	.db #0x3F	; 63
	.db #0x01	; 1
	.db #0x66	; 102	'f'
	.db #0x3F	; 63
	.db #0x02	; 2
	.db #0x66	; 102	'f'
	.db #0x3F	; 63
	.db #0x05	; 5
	.db #0x66	; 102	'f'
	.db #0x3F	; 63
	.db #0x02	; 2
	.db #0x66	; 102	'f'
	.db #0x3F	; 63
	.db #0x05	; 5
	.db #0xE6	; 230
	.db #0x3F	; 63
	.db #0x01	; 1
	.db #0x6D	; 109	'm'
	.db #0x3F	; 63
	.db #0x02	; 2
	.db #0x6D	; 109	'm'
	.db #0x3F	; 63
	.db #0x05	; 5
	.db #0x6D	; 109	'm'
	.db #0x3F	; 63
	.db #0x02	; 2
	.db #0x6D	; 109	'm'
	.db #0x3F	; 63
	.db #0x05	; 5
	.db #0xED	; 237
	.db #0x3F	; 63
	.db #0x01	; 1
	.db #0x66	; 102	'f'
	.db #0x3F	; 63
	.db #0x02	; 2
	.db #0x66	; 102	'f'
	.db #0x3F	; 63
	.db #0x05	; 5
	.db #0x66	; 102	'f'
	.db #0x3F	; 63
	.db #0x02	; 2
	.db #0x66	; 102	'f'
	.db #0x3F	; 63
	.db #0x05	; 5
	.db #0xE6	; 230
	.db #0x3F	; 63
	.db #0x01	; 1
	.db #0x6D	; 109	'm'
	.db #0x3F	; 63
	.db #0x02	; 2
	.db #0x6D	; 109	'm'
	.db #0x3F	; 63
	.db #0x05	; 5
	.db #0x6D	; 109	'm'
	.db #0x3F	; 63
	.db #0x01	; 1
	.db #0x6D	; 109	'm'
	.db #0x3F	; 63
	.db #0x05	; 5
	.db #0xED	; 237
	.db #0x3F	; 63
	.db #0x01	; 1
	.db #0x61	; 97	'a'
	.db #0x3F	; 63
	.db #0x02	; 2
	.db #0x61	; 97	'a'
	.db #0x3F	; 63
	.db #0x05	; 5
	.db #0x61	; 97	'a'
	.db #0x3F	; 63
	.db #0x02	; 2
	.db #0x61	; 97	'a'
	.db #0x3F	; 63
	.db #0x05	; 5
	.db #0xE1	; 225
	.db #0x3F	; 63
	.db #0x01	; 1
	.db #0x6D	; 109	'm'
	.db #0x3F	; 63
	.db #0x02	; 2
	.db #0x6D	; 109	'm'
	.db #0x3F	; 63
	.db #0x05	; 5
	.db #0x6D	; 109	'm'
	.db #0x3F	; 63
	.db #0x02	; 2
	.db #0x6D	; 109	'm'
	.db #0x3F	; 63
	.db #0x05	; 5
	.db #0xED	; 237
	.db #0x3F	; 63
	.db #0x01	; 1
	.db #0x61	; 97	'a'
	.db #0x3F	; 63
	.db #0x02	; 2
	.db #0x61	; 97	'a'
	.db #0x3F	; 63
	.db #0x05	; 5
	.db #0x61	; 97	'a'
	.db #0x3F	; 63
	.db #0x02	; 2
	.db #0x61	; 97	'a'
	.db #0x3F	; 63
	.db #0x05	; 5
	.db #0xE1	; 225
	.db #0x3F	; 63
	.db #0x01	; 1
	.db #0x6D	; 109	'm'
	.db #0x3F	; 63
	.db #0x02	; 2
	.db #0x6D	; 109	'm'
	.db #0x3F	; 63
	.db #0x05	; 5
	.db #0x6D	; 109	'm'
	.db #0x3F	; 63
	.db #0x02	; 2
	.db #0x6D	; 109	'm'
	.db #0x3F	; 63
	.db #0x05	; 5
	.db #0x24	; 36
	.db #0x24	; 36
	.db #0x24	; 36
	.db #0x3F	; 63
	.db #0x02	; 2
	.db #0x24	; 36
	.db #0x24	; 36
	.db #0x24	; 36
	.db #0x3F	; 63
	.db #0x01	; 1
	.db #0x24	; 36
	.db #0x24	; 36
	.db #0x3F	; 63
	.db #0x04	; 4
	.db #0x26	; 38
	.db #0x21	; 33
	.db #0x1D	; 29
	.db #0x1A	; 26
	.db #0x15	; 21
	.db #0x0E	; 14
	.db #0x26	; 38
	.db #0x21	; 33
	.db #0x1D	; 29
	.db #0x1A	; 26
	.db #0x15	; 21
	.db #0x0E	; 14
	.db #0x26	; 38
	.db #0x15	; 21
	.db #0x18	; 24
	.db #0x1A	; 26
	.db #0x1D	; 29
	.db #0x1F	; 31
	.db #0x21	; 33
	.db #0x24	; 36
	.db #0x26	; 38
	.db #0x29	; 41
	.db #0x2B	; 43
	.db #0x2D	; 45
	.db #0x30	; 48	'0'
	.db #0x2D	; 45
	.db #0x2B	; 43
	.db #0x29	; 41
	.db #0x2B	; 43
	.db #0x29	; 41
	.db #0x26	; 38
	.db #0x24	; 36
	.db #0x26	; 38
	.db #0x21	; 33
	.db #0x1D	; 29
	.db #0x1A	; 26
	.db #0x15	; 21
	.db #0x0E	; 14
	.db #0x26	; 38
	.db #0x21	; 33
	.db #0x1D	; 29
	.db #0x1A	; 26
	.db #0x15	; 21
	.db #0x0E	; 14
	.db #0x26	; 38
	.db #0x15	; 21
	.db #0x13	; 19
	.db #0x0E	; 14
	.db #0x11	; 17
	.db #0x13	; 19
	.db #0x15	; 21
	.db #0x18	; 24
	.db #0x1A	; 26
	.db #0x1D	; 29
	.db #0x1F	; 31
	.db #0x21	; 33
	.db #0x24	; 36
	.db #0x26	; 38
	.db #0x29	; 41
	.db #0x2B	; 43
	.db #0x2D	; 45
	.db #0x30	; 48	'0'
	.db #0x32	; 50	'2'
	.db #0x35	; 53	'5'
	.db #0x26	; 38
	.db #0x21	; 33
	.db #0x1D	; 29
	.db #0x1A	; 26
	.db #0x15	; 21
	.db #0x0E	; 14
	.db #0x26	; 38
	.db #0x21	; 33
	.db #0x1D	; 29
	.db #0x1A	; 26
	.db #0x15	; 21
	.db #0x0E	; 14
	.db #0x26	; 38
	.db #0x15	; 21
	.db #0x18	; 24
	.db #0x1A	; 26
	.db #0x1D	; 29
	.db #0x1F	; 31
	.db #0x21	; 33
	.db #0x24	; 36
	.db #0x26	; 38
	.db #0x29	; 41
	.db #0x2B	; 43
	.db #0x2D	; 45
	.db #0x30	; 48	'0'
	.db #0x2D	; 45
	.db #0x2B	; 43
	.db #0x29	; 41
	.db #0x2B	; 43
	.db #0x29	; 41
	.db #0x26	; 38
	.db #0x24	; 36
	.db #0x26	; 38
	.db #0x21	; 33
	.db #0x1D	; 29
	.db #0x1A	; 26
	.db #0x15	; 21
	.db #0x0E	; 14
	.db #0x26	; 38
	.db #0x21	; 33
	.db #0x1D	; 29
	.db #0x1A	; 26
	.db #0x15	; 21
	.db #0x0E	; 14
	.db #0x26	; 38
	.db #0x15	; 21
	.db #0x13	; 19
	.db #0x0E	; 14
	.db #0x11	; 17
	.db #0x13	; 19
	.db #0x15	; 21
	.db #0x18	; 24
	.db #0x1A	; 26
	.db #0x1D	; 29
	.db #0x1F	; 31
	.db #0x21	; 33
	.db #0x24	; 36
	.db #0x26	; 38
	.db #0x29	; 41
	.db #0x2B	; 43
	.db #0x2D	; 45
	.db #0x30	; 48	'0'
	.db #0x32	; 50	'2'
	.db #0x35	; 53	'5'
	.db #0x26	; 38
	.db #0x21	; 33
	.db #0x1D	; 29
	.db #0x1A	; 26
	.db #0x15	; 21
	.db #0x0E	; 14
	.db #0x26	; 38
	.db #0x21	; 33
	.db #0x1D	; 29
	.db #0x1A	; 26
	.db #0x15	; 21
	.db #0x0E	; 14
	.db #0x26	; 38
	.db #0x15	; 21
	.db #0x18	; 24
	.db #0x1A	; 26
	.db #0x1D	; 29
	.db #0x1F	; 31
	.db #0x21	; 33
	.db #0x24	; 36
	.db #0x26	; 38
	.db #0x29	; 41
	.db #0x2B	; 43
	.db #0x2D	; 45
	.db #0x30	; 48	'0'
	.db #0x2D	; 45
	.db #0x2B	; 43
	.db #0x29	; 41
	.db #0x2B	; 43
	.db #0x29	; 41
	.db #0x26	; 38
	.db #0x24	; 36
	.db #0x26	; 38
	.db #0x21	; 33
	.db #0x1D	; 29
	.db #0x1A	; 26
	.db #0x15	; 21
	.db #0x0E	; 14
	.db #0x26	; 38
	.db #0x21	; 33
	.db #0x1D	; 29
	.db #0x1A	; 26
	.db #0x15	; 21
	.db #0x0E	; 14
	.db #0x26	; 38
	.db #0x15	; 21
	.db #0x13	; 19
	.db #0x0E	; 14
	.db #0x11	; 17
	.db #0x13	; 19
	.db #0x15	; 21
	.db #0x18	; 24
	.db #0x1A	; 26
	.db #0x1D	; 29
	.db #0x1F	; 31
	.db #0x21	; 33
	.db #0x24	; 36
	.db #0x26	; 38
	.db #0x29	; 41
	.db #0x2B	; 43
	.db #0x2D	; 45
	.db #0x30	; 48	'0'
	.db #0x32	; 50	'2'
	.db #0x35	; 53	'5'
	.db #0x26	; 38
	.db #0x21	; 33
	.db #0x1D	; 29
	.db #0x1A	; 26
	.db #0x15	; 21
	.db #0x0E	; 14
	.db #0x26	; 38
	.db #0x21	; 33
	.db #0x1D	; 29
	.db #0x1A	; 26
	.db #0x15	; 21
	.db #0x0E	; 14
	.db #0x26	; 38
	.db #0x15	; 21
	.db #0x18	; 24
	.db #0x1A	; 26
	.db #0x1D	; 29
	.db #0x1F	; 31
	.db #0x21	; 33
	.db #0x24	; 36
	.db #0x26	; 38
	.db #0x29	; 41
	.db #0x2B	; 43
	.db #0x2D	; 45
	.db #0x30	; 48	'0'
	.db #0x2D	; 45
	.db #0x2B	; 43
	.db #0x29	; 41
	.db #0x2B	; 43
	.db #0x29	; 41
	.db #0x26	; 38
	.db #0x24	; 36
	.db #0x26	; 38
	.db #0x21	; 33
	.db #0x1D	; 29
	.db #0x1A	; 26
	.db #0x15	; 21
	.db #0x0E	; 14
	.db #0x26	; 38
	.db #0x21	; 33
	.db #0x1D	; 29
	.db #0x1A	; 26
	.db #0x15	; 21
	.db #0x0E	; 14
	.db #0x26	; 38
	.db #0x15	; 21
	.db #0x13	; 19
	.db #0x0E	; 14
	.db #0x11	; 17
	.db #0x13	; 19
	.db #0x15	; 21
	.db #0x18	; 24
	.db #0x1A	; 26
	.db #0x1D	; 29
	.db #0x1F	; 31
	.db #0x21	; 33
	.db #0xE6	; 230
	.db #0x00	; 0
	.db #0x7F	; 127
	.db #0x40	; 64
	.db #0x7F	; 127
	.db #0x42	; 66	'B'
	.db #0x7F	; 127
	.db #0x41	; 65	'A'
	.db #0x7F	; 127
	.db #0x40	; 64
	.db #0x7F	; 127
	.db #0x40	; 64
	.db #0x7F	; 127
	.db #0x42	; 66	'B'
	.db #0x7F	; 127
	.db #0x41	; 65	'A'
	.db #0x7F	; 127
	.db #0x80	; 128
	.db #0x7F	; 127
	.db #0x40	; 64
	.db #0x7F	; 127
	.db #0x41	; 65	'A'
	.db #0x7F	; 127
	.db #0x02	; 2
	.db #0x7F	; 127
	.db #0x02	; 2
	.db #0x7F	; 127
	.db #0x40	; 64
	.db #0x7F	; 127
	.db #0x42	; 66	'B'
	.db #0x7F	; 127
	.db #0x41	; 65	'A'
	.db #0x7F	; 127
	.db #0x42	; 66	'B'
	.db #0x7F	; 127
	.db #0x40	; 64
	.db #0x7F	; 127
	.db #0x42	; 66	'B'
	.db #0x7F	; 127
	.db #0x41	; 65	'A'
	.db #0x7F	; 127
	.db #0x40	; 64
	.db #0x7F	; 127
	.db #0x40	; 64
	.db #0x7F	; 127
	.db #0x42	; 66	'B'
	.db #0x7F	; 127
	.db #0x41	; 65	'A'
	.db #0x7F	; 127
	.db #0x80	; 128
	.db #0x7F	; 127
	.db #0x40	; 64
	.db #0x7F	; 127
	.db #0x41	; 65	'A'
	.db #0x7F	; 127
	.db #0x02	; 2
	.db #0x7F	; 127
	.db #0x02	; 2
	.db #0x7F	; 127
	.db #0x40	; 64
	.db #0x7F	; 127
	.db #0x42	; 66	'B'
	.db #0x7F	; 127
	.db #0x41	; 65	'A'
	.db #0x7F	; 127
	.db #0x42	; 66	'B'
	.db #0x7F	; 127
	.db #0x40	; 64
	.db #0x7F	; 127
	.db #0x42	; 66	'B'
	.db #0x7F	; 127
	.db #0x41	; 65	'A'
	.db #0x7F	; 127
	.db #0x40	; 64
	.db #0x7F	; 127
	.db #0x40	; 64
	.db #0x7F	; 127
	.db #0x42	; 66	'B'
	.db #0x7F	; 127
	.db #0x41	; 65	'A'
	.db #0x7F	; 127
	.db #0x80	; 128
	.db #0x7F	; 127
	.db #0x40	; 64
	.db #0x7F	; 127
	.db #0x41	; 65	'A'
	.db #0x7F	; 127
	.db #0x02	; 2
	.db #0x7F	; 127
	.db #0x02	; 2
	.db #0x7F	; 127
	.db #0x40	; 64
	.db #0x7F	; 127
	.db #0x42	; 66	'B'
	.db #0x7F	; 127
	.db #0x41	; 65	'A'
	.db #0x7F	; 127
	.db #0x42	; 66	'B'
	.db #0x7F	; 127
	.db #0x40	; 64
	.db #0x7F	; 127
	.db #0x42	; 66	'B'
	.db #0x7F	; 127
	.db #0x41	; 65	'A'
	.db #0x7F	; 127
	.db #0x40	; 64
	.db #0x7F	; 127
	.db #0x40	; 64
	.db #0x7F	; 127
	.db #0x42	; 66	'B'
	.db #0x7F	; 127
	.db #0x41	; 65	'A'
	.db #0x7F	; 127
	.db #0x80	; 128
	.db #0x7F	; 127
	.db #0x40	; 64
	.db #0x7F	; 127
	.db #0x41	; 65	'A'
	.db #0x7F	; 127
	.db #0x02	; 2
	.db #0x7F	; 127
	.db #0x02	; 2
	.db #0x7F	; 127
	.db #0x40	; 64
	.db #0x7F	; 127
	.db #0x42	; 66	'B'
	.db #0x7F	; 127
	.db #0x41	; 65	'A'
	.db #0x7F	; 127
	.db #0x42	; 66	'B'
	.db #0x7F	; 127
	.db #0x40	; 64
	.db #0x7F	; 127
	.db #0x42	; 66	'B'
	.db #0x7F	; 127
	.db #0x41	; 65	'A'
	.db #0x7F	; 127
	.db #0x40	; 64
	.db #0x7F	; 127
	.db #0x40	; 64
	.db #0x7F	; 127
	.db #0x42	; 66	'B'
	.db #0x7F	; 127
	.db #0x41	; 65	'A'
	.db #0x7F	; 127
	.db #0x80	; 128
	.db #0x7F	; 127
	.db #0x40	; 64
	.db #0x7F	; 127
	.db #0x41	; 65	'A'
	.db #0x7F	; 127
	.db #0x02	; 2
	.db #0x7F	; 127
	.db #0x02	; 2
	.db #0x7F	; 127
	.db #0x40	; 64
	.db #0x7F	; 127
	.db #0x42	; 66	'B'
	.db #0x7F	; 127
	.db #0x41	; 65	'A'
	.db #0x7F	; 127
	.db #0x42	; 66	'B'
	.db #0x7F	; 127
	.db #0x40	; 64
	.db #0x7F	; 127
	.db #0x42	; 66	'B'
	.db #0x7F	; 127
	.db #0x41	; 65	'A'
	.db #0x7F	; 127
	.db #0x40	; 64
	.db #0x7F	; 127
	.db #0x40	; 64
	.db #0x7F	; 127
	.db #0x42	; 66	'B'
	.db #0x7F	; 127
	.db #0x41	; 65	'A'
	.db #0x7F	; 127
	.db #0x80	; 128
	.db #0x7F	; 127
	.db #0x40	; 64
	.db #0x7F	; 127
	.db #0x41	; 65	'A'
	.db #0x7F	; 127
	.db #0x02	; 2
	.db #0x7F	; 127
	.db #0x02	; 2
	.db #0x7F	; 127
	.db #0x40	; 64
	.db #0x7F	; 127
	.db #0x42	; 66	'B'
	.db #0x7F	; 127
	.db #0x41	; 65	'A'
	.db #0x7F	; 127
	.db #0x42	; 66	'B'
	.db #0x7F	; 127
	.db #0x40	; 64
	.db #0x7F	; 127
	.db #0x42	; 66	'B'
	.db #0x7F	; 127
	.db #0x41	; 65	'A'
	.db #0x7F	; 127
	.db #0x40	; 64
	.db #0x7F	; 127
	.db #0x40	; 64
	.db #0x7F	; 127
	.db #0x42	; 66	'B'
	.db #0x7F	; 127
	.db #0x41	; 65	'A'
	.db #0x7F	; 127
	.db #0x80	; 128
	.db #0x7F	; 127
	.db #0x40	; 64
	.db #0x7F	; 127
	.db #0x41	; 65	'A'
	.db #0x7F	; 127
	.db #0x02	; 2
	.db #0x7F	; 127
	.db #0x02	; 2
	.db #0x7F	; 127
	.db #0x40	; 64
	.db #0x7F	; 127
	.db #0x42	; 66	'B'
	.db #0x7F	; 127
	.db #0x41	; 65	'A'
	.db #0x7F	; 127
	.db #0x42	; 66	'B'
	.db #0x7F	; 127
	.db #0x40	; 64
	.db #0x7F	; 127
	.db #0x42	; 66	'B'
	.db #0x7F	; 127
	.db #0x41	; 65	'A'
	.db #0x7F	; 127
	.db #0x40	; 64
	.db #0x7F	; 127
	.db #0x40	; 64
	.db #0x7F	; 127
	.db #0x42	; 66	'B'
	.db #0x7F	; 127
	.db #0x41	; 65	'A'
	.db #0x7F	; 127
	.db #0x80	; 128
	.db #0x7F	; 127
	.db #0x40	; 64
	.db #0x7F	; 127
	.db #0x41	; 65	'A'
	.db #0x7F	; 127
	.db #0x02	; 2
	.db #0x7F	; 127
	.db #0x02	; 2
	.db #0x7F	; 127
	.db #0x40	; 64
	.db #0x7F	; 127
	.db #0x42	; 66	'B'
	.db #0x7F	; 127
	.db #0x41	; 65	'A'
	.db #0x7F	; 127
	.db #0x42	; 66	'B'
	.db #0x7F	; 127
	.db #0x40	; 64
	.db #0x7F	; 127
	.db #0x42	; 66	'B'
	.db #0x7F	; 127
	.db #0x41	; 65	'A'
	.db #0x7F	; 127
	.db #0x40	; 64
	.db #0x7F	; 127
	.db #0x40	; 64
	.db #0x7F	; 127
	.db #0x42	; 66	'B'
	.db #0x7F	; 127
	.db #0x41	; 65	'A'
	.db #0x7F	; 127
	.db #0x80	; 128
	.db #0x7F	; 127
	.db #0x40	; 64
	.db #0x7F	; 127
	.db #0x41	; 65	'A'
	.db #0x7F	; 127
	.db #0x02	; 2
	.db #0x7F	; 127
	.db #0x02	; 2
	.db #0x7F	; 127
	.db #0x40	; 64
	.db #0x7F	; 127
	.db #0x42	; 66	'B'
	.db #0x7F	; 127
	.db #0x41	; 65	'A'
	.db #0x7F	; 127
	.db #0x42	; 66	'B'
	.db #0x7F	; 127
	.db #0x40	; 64
	.db #0x7F	; 127
	.db #0x42	; 66	'B'
	.db #0x7F	; 127
	.db #0x41	; 65	'A'
	.db #0x7F	; 127
	.db #0x40	; 64
	.db #0x7F	; 127
	.db #0x40	; 64
	.db #0x7F	; 127
	.db #0x42	; 66	'B'
	.db #0x7F	; 127
	.db #0x41	; 65	'A'
	.db #0x7F	; 127
	.db #0x80	; 128
	.db #0x7F	; 127
	.db #0x40	; 64
	.db #0x7F	; 127
	.db #0x41	; 65	'A'
	.db #0x7F	; 127
	.db #0x02	; 2
	.db #0x7F	; 127
	.db #0x02	; 2
	.db #0x7F	; 127
	.db #0x40	; 64
	.db #0x7F	; 127
	.db #0x42	; 66	'B'
	.db #0x7F	; 127
	.db #0x41	; 65	'A'
	.db #0x7F	; 127
	.db #0x42	; 66	'B'
	.db #0x7F	; 127
	.db #0x40	; 64
	.db #0x7F	; 127
	.db #0x42	; 66	'B'
	.db #0x7F	; 127
	.db #0x41	; 65	'A'
	.db #0x7F	; 127
	.db #0x40	; 64
	.db #0x7F	; 127
	.db #0x40	; 64
	.db #0x7F	; 127
	.db #0x42	; 66	'B'
	.db #0x7F	; 127
	.db #0x41	; 65	'A'
	.db #0x7F	; 127
	.db #0x80	; 128
	.db #0x7F	; 127
	.db #0x40	; 64
	.db #0x7F	; 127
	.db #0x41	; 65	'A'
	.db #0x7F	; 127
	.db #0x02	; 2
	.db #0x7F	; 127
	.db #0x02	; 2
	.db #0x7F	; 127
	.db #0x40	; 64
	.db #0x7F	; 127
	.db #0x42	; 66	'B'
	.db #0x7F	; 127
	.db #0x41	; 65	'A'
	.db #0x7F	; 127
	.db #0x42	; 66	'B'
	.db #0x7F	; 127
	.db #0x40	; 64
	.db #0x7F	; 127
	.db #0x42	; 66	'B'
	.db #0x7F	; 127
	.db #0x41	; 65	'A'
	.db #0x7F	; 127
	.db #0x40	; 64
	.db #0x7F	; 127
	.db #0x40	; 64
	.db #0x7F	; 127
	.db #0x42	; 66	'B'
	.db #0x7F	; 127
	.db #0x41	; 65	'A'
	.db #0x7F	; 127
	.db #0x80	; 128
	.db #0x7F	; 127
	.db #0x40	; 64
	.db #0x7F	; 127
	.db #0x41	; 65	'A'
	.db #0x7F	; 127
	.db #0x02	; 2
	.db #0x7F	; 127
	.db #0x02	; 2
	.db #0x7F	; 127
	.db #0x40	; 64
	.db #0x7F	; 127
	.db #0x42	; 66	'B'
	.db #0x7F	; 127
	.db #0x41	; 65	'A'
	.db #0x7F	; 127
	.db #0x42	; 66	'B'
	.db #0x7F	; 127
	.db #0x40	; 64
	.db #0x7F	; 127
	.db #0x42	; 66	'B'
	.db #0x7F	; 127
	.db #0x41	; 65	'A'
	.db #0x7F	; 127
	.db #0x40	; 64
	.db #0x7F	; 127
	.db #0x40	; 64
	.db #0x7F	; 127
	.db #0x42	; 66	'B'
	.db #0x7F	; 127
	.db #0x41	; 65	'A'
	.db #0x7F	; 127
	.db #0x80	; 128
	.db #0x7F	; 127
	.db #0x40	; 64
	.db #0x7F	; 127
	.db #0x41	; 65	'A'
	.db #0x7F	; 127
	.db #0x02	; 2
	.db #0x7F	; 127
	.db #0x02	; 2
	.db #0x7F	; 127
	.db #0x40	; 64
	.db #0x7F	; 127
	.db #0x42	; 66	'B'
	.db #0x7F	; 127
	.db #0x41	; 65	'A'
	.db #0x7F	; 127
	.db #0x42	; 66	'B'
	.db #0x7F	; 127
	.db #0x40	; 64
	.db #0x7F	; 127
	.db #0x42	; 66	'B'
	.db #0x7F	; 127
	.db #0x41	; 65	'A'
	.db #0x7F	; 127
	.db #0x40	; 64
	.db #0x7F	; 127
	.db #0x40	; 64
	.db #0x7F	; 127
	.db #0x42	; 66	'B'
	.db #0x7F	; 127
	.db #0x41	; 65	'A'
	.db #0x7F	; 127
	.db #0x80	; 128
	.db #0x7F	; 127
	.db #0x40	; 64
	.db #0x7F	; 127
	.db #0x41	; 65	'A'
	.db #0x7F	; 127
	.db #0x02	; 2
	.db #0x7F	; 127
	.db #0x02	; 2
	.db #0x7F	; 127
	.db #0x40	; 64
	.db #0x7F	; 127
	.db #0x42	; 66	'B'
	.db #0x7F	; 127
	.db #0x41	; 65	'A'
	.db #0x7F	; 127
	.db #0x42	; 66	'B'
	.db #0x7F	; 127
	.db #0x40	; 64
	.db #0x7F	; 127
	.db #0x42	; 66	'B'
	.db #0x7F	; 127
	.db #0x41	; 65	'A'
	.db #0x7F	; 127
	.db #0x40	; 64
	.db #0x7F	; 127
	.db #0x40	; 64
	.db #0x7F	; 127
	.db #0x42	; 66	'B'
	.db #0x7F	; 127
	.db #0x41	; 65	'A'
	.db #0x7F	; 127
	.db #0x80	; 128
	.db #0x7F	; 127
	.db #0x40	; 64
	.db #0x7F	; 127
	.db #0x41	; 65	'A'
	.db #0x7F	; 127
	.db #0x02	; 2
	.db #0x7F	; 127
	.db #0x02	; 2
	.db #0x7F	; 127
	.db #0x40	; 64
	.db #0x7F	; 127
	.db #0x42	; 66	'B'
	.db #0x7F	; 127
	.db #0x41	; 65	'A'
	.db #0x7F	; 127
	.db #0x42	; 66	'B'
	.db #0x7F	; 127
	.db #0x40	; 64
	.db #0x7F	; 127
	.db #0x42	; 66	'B'
	.db #0x7F	; 127
	.db #0x41	; 65	'A'
	.db #0x7F	; 127
	.db #0x40	; 64
	.db #0x7F	; 127
	.db #0x40	; 64
	.db #0x7F	; 127
	.db #0x42	; 66	'B'
	.db #0x7F	; 127
	.db #0x41	; 65	'A'
	.db #0x7F	; 127
	.db #0x80	; 128
	.db #0x7F	; 127
	.db #0x42	; 66	'B'
	.db #0x7F	; 127
	.db #0x42	; 66	'B'
	.db #0x7F	; 127
	.db #0x42	; 66	'B'
	.db #0x7F	; 127
	.db #0x42	; 66	'B'
	.db #0x7F	; 127
	.db #0x42	; 66	'B'
	.db #0x7F	; 127
	.db #0x41	; 65	'A'
	.db #0x7F	; 127
	.db #0x01	; 1
	.db #0x7F	; 127
	.db #0x01	; 1
	.db #0x7F	; 127
	.db #0x40	; 64
	.db #0x7F	; 127
	.db #0x42	; 66	'B'
	.db #0x7F	; 127
	.db #0x41	; 65	'A'
	.db #0x7F	; 127
	.db #0x40	; 64
	.db #0x7F	; 127
	.db #0x40	; 64
	.db #0x7F	; 127
	.db #0x42	; 66	'B'
	.db #0x7F	; 127
	.db #0x41	; 65	'A'
	.db #0x7F	; 127
	.db #0x80	; 128
	.db #0x7F	; 127
	.db #0x40	; 64
	.db #0x7F	; 127
	.db #0x41	; 65	'A'
	.db #0x7F	; 127
	.db #0x02	; 2
	.db #0x7F	; 127
	.db #0x02	; 2
	.db #0x7F	; 127
	.db #0x40	; 64
	.db #0x7F	; 127
	.db #0x42	; 66	'B'
	.db #0x7F	; 127
	.db #0x41	; 65	'A'
	.db #0x7F	; 127
	.db #0x42	; 66	'B'
	.db #0x7F	; 127
	.db #0x40	; 64
	.db #0x7F	; 127
	.db #0x42	; 66	'B'
	.db #0x7F	; 127
	.db #0x41	; 65	'A'
	.db #0x7F	; 127
	.db #0x40	; 64
	.db #0x7F	; 127
	.db #0x40	; 64
	.db #0x7F	; 127
	.db #0x42	; 66	'B'
	.db #0x7F	; 127
	.db #0x41	; 65	'A'
	.db #0x7F	; 127
	.db #0x80	; 128
	.db #0x7F	; 127
	.db #0x40	; 64
	.db #0x7F	; 127
	.db #0x41	; 65	'A'
	.db #0x7F	; 127
	.db #0x02	; 2
	.db #0x7F	; 127
	.db #0x02	; 2
	.db #0x7F	; 127
	.db #0x40	; 64
	.db #0x7F	; 127
	.db #0x42	; 66	'B'
	.db #0x7F	; 127
	.db #0x41	; 65	'A'
	.db #0x7F	; 127
	.db #0x42	; 66	'B'
	.db #0x7F	; 127
	.db #0x40	; 64
	.db #0x7F	; 127
	.db #0x42	; 66	'B'
	.db #0x7F	; 127
	.db #0x41	; 65	'A'
	.db #0x7F	; 127
	.db #0x40	; 64
	.db #0x7F	; 127
	.db #0x40	; 64
	.db #0x7F	; 127
	.db #0x42	; 66	'B'
	.db #0x7F	; 127
	.db #0x41	; 65	'A'
	.db #0x7F	; 127
	.db #0x80	; 128
	.db #0x7F	; 127
	.db #0x40	; 64
	.db #0x7F	; 127
	.db #0x41	; 65	'A'
	.db #0x7F	; 127
	.db #0x02	; 2
	.db #0x7F	; 127
	.db #0x02	; 2
	.db #0x7F	; 127
	.db #0x40	; 64
	.db #0x7F	; 127
	.db #0x42	; 66	'B'
	.db #0x7F	; 127
	.db #0x41	; 65	'A'
	.db #0x7F	; 127
	.db #0x42	; 66	'B'
	.db #0x7F	; 127
	.db #0x40	; 64
	.db #0x7F	; 127
	.db #0x42	; 66	'B'
	.db #0x7F	; 127
	.db #0x41	; 65	'A'
	.db #0x7F	; 127
	.db #0x40	; 64
	.db #0x7F	; 127
	.db #0x40	; 64
	.db #0x7F	; 127
	.db #0x42	; 66	'B'
	.db #0x7F	; 127
	.db #0x41	; 65	'A'
	.db #0x7F	; 127
	.db #0x80	; 128
	.db #0x7F	; 127
	.db #0x40	; 64
	.db #0x7F	; 127
	.db #0x41	; 65	'A'
	.db #0x7F	; 127
	.db #0x02	; 2
	.db #0x7F	; 127
	.db #0x02	; 2
	.db #0x7F	; 127
	.db #0x40	; 64
	.db #0x7F	; 127
	.db #0x42	; 66	'B'
	.db #0x7F	; 127
	.db #0x41	; 65	'A'
	.db #0x7F	; 127
	.db #0x42	; 66	'B'
	.db #0x7F	; 127
	.db #0x40	; 64
	.db #0x7F	; 127
	.db #0x42	; 66	'B'
	.db #0x7F	; 127
	.db #0x41	; 65	'A'
	.db #0x7F	; 127
	.db #0x40	; 64
	.db #0x7F	; 127
	.db #0x40	; 64
	.db #0x7F	; 127
	.db #0x42	; 66	'B'
	.db #0x7F	; 127
	.db #0x41	; 65	'A'
	.db #0x7F	; 127
	.db #0x80	; 128
	.db #0x7F	; 127
	.db #0x40	; 64
	.db #0x7F	; 127
	.db #0x41	; 65	'A'
	.db #0x7F	; 127
	.db #0x02	; 2
	.db #0x7F	; 127
	.db #0x02	; 2
	.db #0x7F	; 127
	.db #0x40	; 64
	.db #0x7F	; 127
	.db #0x42	; 66	'B'
	.db #0x7F	; 127
	.db #0x41	; 65	'A'
	.db #0x7F	; 127
	.db #0x42	; 66	'B'
	.db #0x7F	; 127
	.db #0x40	; 64
	.db #0x7F	; 127
	.db #0x42	; 66	'B'
	.db #0x7F	; 127
	.db #0x41	; 65	'A'
	.db #0x7F	; 127
	.db #0x40	; 64
	.db #0x7F	; 127
	.db #0x40	; 64
	.db #0x7F	; 127
	.db #0x42	; 66	'B'
	.db #0x7F	; 127
	.db #0x41	; 65	'A'
	.db #0x7F	; 127
	.db #0x80	; 128
	.db #0x7F	; 127
	.db #0x42	; 66	'B'
	.db #0x7F	; 127
	.db #0x42	; 66	'B'
	.db #0x7F	; 127
	.db #0x42	; 66	'B'
	.db #0x7F	; 127
	.db #0x42	; 66	'B'
	.db #0x7F	; 127
	.db #0x42	; 66	'B'
	.db #0x7F	; 127
	.db #0x41	; 65	'A'
	.db #0x7F	; 127
	.db #0x01	; 1
	.db #0x7F	; 127
	.db #0x01	; 1
	.db #0x7F	; 127
	.db #0xC0	; 192
	.db #0x7F	; 127
	.db #0xC0	; 192
	.db #0x7F	; 127
	.db #0xC0	; 192
	.db #0x7F	; 127
	.db #0xC0	; 192
	.db #0x7F	; 127
	.db #0xC0	; 192
	.db #0x7F	; 127
	.db #0xC0	; 192
	.db #0x7F	; 127
	.db #0xC0	; 192
	.db #0x7F	; 127
	.db #0x80	; 128
	.db #0x7F	; 127
	.db #0x02	; 2
	.db #0x7F	; 127
	.db #0x02	; 2
	.db #0x7F	; 127
	.db #0x02	; 2
	.db #0x7F	; 127
	.db #0x02	; 2
	.db #0x7F	; 127
	.db #0xC0	; 192
	.db #0x7F	; 127
	.db #0xC0	; 192
	.db #0x7F	; 127
	.db #0xC0	; 192
	.db #0x7F	; 127
	.db #0xC0	; 192
	.db #0x7F	; 127
	.db #0xC0	; 192
	.db #0x7F	; 127
	.db #0xC0	; 192
	.db #0x7F	; 127
	.db #0xC0	; 192
	.db #0x7F	; 127
	.db #0x80	; 128
	.db #0x7F	; 127
	.db #0x41	; 65	'A'
	.db #0x7F	; 127
	.db #0x01	; 1
	.db #0x7F	; 127
	.db #0x01	; 1
	.db #0x7F	; 127
	.db #0x40	; 64
	.db #0x7F	; 127
	.db #0x42	; 66	'B'
	.db #0x7F	; 127
	.db #0x41	; 65	'A'
	.db #0x7F	; 127
	.db #0x40	; 64
	.db #0x7F	; 127
	.db #0x40	; 64
	.db #0x7F	; 127
	.db #0x42	; 66	'B'
	.db #0x7F	; 127
	.db #0x41	; 65	'A'
	.db #0x7F	; 127
	.db #0x80	; 128
	.db #0x7F	; 127
	.db #0x40	; 64
	.db #0x7F	; 127
	.db #0x41	; 65	'A'
	.db #0x7F	; 127
	.db #0x02	; 2
	.db #0x7F	; 127
	.db #0x02	; 2
	.db #0x7F	; 127
	.db #0x40	; 64
	.db #0x7F	; 127
	.db #0x42	; 66	'B'
	.db #0x7F	; 127
	.db #0x41	; 65	'A'
	.db #0x7F	; 127
	.db #0x42	; 66	'B'
	.db #0x7F	; 127
	.db #0x40	; 64
	.db #0x7F	; 127
	.db #0x42	; 66	'B'
	.db #0x7F	; 127
	.db #0x41	; 65	'A'
	.db #0x7F	; 127
	.db #0x40	; 64
	.db #0x7F	; 127
	.db #0x40	; 64
	.db #0x7F	; 127
	.db #0x42	; 66	'B'
	.db #0x7F	; 127
	.db #0x41	; 65	'A'
	.db #0x7F	; 127
	.db #0x80	; 128
	.db #0x7F	; 127
	.db #0x40	; 64
	.db #0x7F	; 127
	.db #0x41	; 65	'A'
	.db #0x7F	; 127
	.db #0x02	; 2
	.db #0x7F	; 127
	.db #0x02	; 2
	.db #0x7F	; 127
	.db #0x40	; 64
	.db #0x7F	; 127
	.db #0x42	; 66	'B'
	.db #0x7F	; 127
	.db #0x41	; 65	'A'
	.db #0x7F	; 127
	.db #0x42	; 66	'B'
	.db #0x7F	; 127
	.db #0x40	; 64
	.db #0x7F	; 127
	.db #0x42	; 66	'B'
	.db #0x7F	; 127
	.db #0x41	; 65	'A'
	.db #0x7F	; 127
	.db #0x40	; 64
	.db #0x7F	; 127
	.db #0x40	; 64
	.db #0x7F	; 127
	.db #0x42	; 66	'B'
	.db #0x7F	; 127
	.db #0x41	; 65	'A'
	.db #0x7F	; 127
	.db #0x80	; 128
	.db #0x7F	; 127
	.db #0x40	; 64
	.db #0x7F	; 127
	.db #0x41	; 65	'A'
	.db #0x7F	; 127
	.db #0x02	; 2
	.db #0x7F	; 127
	.db #0x02	; 2
	.db #0x7F	; 127
	.db #0x40	; 64
	.db #0x7F	; 127
	.db #0x42	; 66	'B'
	.db #0x7F	; 127
	.db #0x41	; 65	'A'
	.db #0x7F	; 127
	.db #0x42	; 66	'B'
	.db #0x7F	; 127
	.db #0x40	; 64
	.db #0x7F	; 127
	.db #0x42	; 66	'B'
	.db #0x7F	; 127
	.db #0x41	; 65	'A'
	.db #0x7F	; 127
	.db #0x40	; 64
	.db #0x7F	; 127
	.db #0x40	; 64
	.db #0x7F	; 127
	.db #0x42	; 66	'B'
	.db #0x7F	; 127
	.db #0x41	; 65	'A'
	.db #0x7F	; 127
	.db #0x80	; 128
	.db #0x7F	; 127
	.db #0x40	; 64
	.db #0x7F	; 127
	.db #0x41	; 65	'A'
	.db #0x7F	; 127
	.db #0x02	; 2
	.db #0x7F	; 127
	.db #0x02	; 2
	.db #0x7F	; 127
	.db #0x40	; 64
	.db #0x7F	; 127
	.db #0x42	; 66	'B'
	.db #0x7F	; 127
	.db #0x41	; 65	'A'
	.db #0x7F	; 127
	.db #0x42	; 66	'B'
	.db #0x7F	; 127
	.db #0x40	; 64
	.db #0x7F	; 127
	.db #0x42	; 66	'B'
	.db #0x7F	; 127
	.db #0x41	; 65	'A'
	.db #0x7F	; 127
	.db #0x40	; 64
	.db #0x7F	; 127
	.db #0x40	; 64
	.db #0x7F	; 127
	.db #0x42	; 66	'B'
	.db #0x7F	; 127
	.db #0x41	; 65	'A'
	.db #0x7F	; 127
	.db #0x80	; 128
	.db #0x7F	; 127
	.db #0x40	; 64
	.db #0x7F	; 127
	.db #0x41	; 65	'A'
	.db #0x7F	; 127
	.db #0x02	; 2
	.db #0x7F	; 127
	.db #0x02	; 2
	.db #0x7F	; 127
	.db #0x40	; 64
	.db #0x7F	; 127
	.db #0x42	; 66	'B'
	.db #0x7F	; 127
	.db #0x41	; 65	'A'
	.db #0x7F	; 127
	.db #0x42	; 66	'B'
	.db #0x7F	; 127
	.db #0x40	; 64
	.db #0x7F	; 127
	.db #0x42	; 66	'B'
	.db #0x7F	; 127
	.db #0x41	; 65	'A'
	.db #0x7F	; 127
	.db #0x40	; 64
	.db #0x7F	; 127
	.db #0x40	; 64
	.db #0x7F	; 127
	.db #0x42	; 66	'B'
	.db #0x7F	; 127
	.db #0x41	; 65	'A'
	.db #0x7F	; 127
	.db #0x80	; 128
	.db #0x7F	; 127
	.db #0x40	; 64
	.db #0x7F	; 127
	.db #0x41	; 65	'A'
	.db #0x7F	; 127
	.db #0x02	; 2
	.db #0x7F	; 127
	.db #0x02	; 2
	.db #0x7F	; 127
	.db #0x40	; 64
	.db #0x7F	; 127
	.db #0x42	; 66	'B'
	.db #0x7F	; 127
	.db #0x41	; 65	'A'
	.db #0x7F	; 127
	.db #0x42	; 66	'B'
	.db #0x7F	; 127
	.db #0x40	; 64
	.db #0x7F	; 127
	.db #0x42	; 66	'B'
	.db #0x7F	; 127
	.db #0x41	; 65	'A'
	.db #0x7F	; 127
	.db #0x40	; 64
	.db #0x7F	; 127
	.db #0x40	; 64
	.db #0x7F	; 127
	.db #0x42	; 66	'B'
	.db #0x7F	; 127
	.db #0x41	; 65	'A'
	.db #0x7F	; 127
	.db #0x80	; 128
	.db #0x7F	; 127
	.db #0x40	; 64
	.db #0x7F	; 127
	.db #0x41	; 65	'A'
	.db #0x7F	; 127
	.db #0x02	; 2
	.db #0x7F	; 127
	.db #0x02	; 2
	.db #0x7F	; 127
	.db #0x40	; 64
	.db #0x7F	; 127
	.db #0x42	; 66	'B'
	.db #0x7F	; 127
	.db #0x41	; 65	'A'
	.db #0x7F	; 127
	.db #0x42	; 66	'B'
	.db #0x7F	; 127
	.db #0x40	; 64
	.db #0x7F	; 127
	.db #0x42	; 66	'B'
	.db #0x7F	; 127
	.db #0x41	; 65	'A'
	.db #0x7F	; 127
	.db #0x40	; 64
	.db #0x7F	; 127
	.db #0x40	; 64
	.db #0x7F	; 127
	.db #0x42	; 66	'B'
	.db #0x7F	; 127
	.db #0x41	; 65	'A'
	.db #0x7F	; 127
	.db #0x80	; 128
	.db #0x7F	; 127
	.db #0x40	; 64
	.db #0x7F	; 127
	.db #0x41	; 65	'A'
	.db #0x7F	; 127
	.db #0x42	; 66	'B'
	.db #0x7F	; 127
	.db #0x40	; 64
	.db #0x7F	; 127
	.db #0x02	; 2
	.db #0x7F	; 127
	.db #0x02	; 2
	.db #0x7F	; 127
	.db #0x41	; 65	'A'
	.db #0x7F	; 127
	.db #0x01	; 1
	.db #0x7F	; 127
	.db #0x01	; 1
	.db #0x00	; 0
	.db #0x00	; 0
_SONG_4:
	.db #0x06	; 6
	.db #0x07	; 7
	.db #0x00	; 0
	.db #0x00	; 0
	.db #0x3F	; 63
	.db #0x07	; 7
	.db #0x4C	; 76	'L'
	.db #0x4E	; 78	'N'
	.db #0x4E	; 78	'N'
	.db #0x4E	; 78	'N'
	.db #0x4C	; 76	'L'
	.db #0x4E	; 78	'N'
	.db #0x51	; 81	'Q'
	.db #0x4E	; 78	'N'
	.db #0x47	; 71	'G'
	.db #0x49	; 73	'I'
	.db #0x49	; 73	'I'
	.db #0x49	; 73	'I'
	.db #0x47	; 71	'G'
	.db #0x49	; 73	'I'
	.db #0x4C	; 76	'L'
	.db #0x49	; 73	'I'
	.db #0x4C	; 76	'L'
	.db #0x4E	; 78	'N'
	.db #0x4E	; 78	'N'
	.db #0x4E	; 78	'N'
	.db #0x4C	; 76	'L'
	.db #0x4E	; 78	'N'
	.db #0x51	; 81	'Q'
	.db #0x4E	; 78	'N'
	.db #0x47	; 71	'G'
	.db #0x49	; 73	'I'
	.db #0x49	; 73	'I'
	.db #0x49	; 73	'I'
	.db #0x47	; 71	'G'
	.db #0x49	; 73	'I'
	.db #0x4C	; 76	'L'
	.db #0x49	; 73	'I'
	.db #0x4C	; 76	'L'
	.db #0x4E	; 78	'N'
	.db #0x4E	; 78	'N'
	.db #0x4E	; 78	'N'
	.db #0x4C	; 76	'L'
	.db #0x4E	; 78	'N'
	.db #0x51	; 81	'Q'
	.db #0x4E	; 78	'N'
	.db #0x47	; 71	'G'
	.db #0x49	; 73	'I'
	.db #0x49	; 73	'I'
	.db #0x49	; 73	'I'
	.db #0x47	; 71	'G'
	.db #0x49	; 73	'I'
	.db #0x4C	; 76	'L'
	.db #0x49	; 73	'I'
	.db #0x4C	; 76	'L'
	.db #0x4E	; 78	'N'
	.db #0x4E	; 78	'N'
	.db #0x4E	; 78	'N'
	.db #0x4C	; 76	'L'
	.db #0x4E	; 78	'N'
	.db #0x51	; 81	'Q'
	.db #0x4E	; 78	'N'
	.db #0x47	; 71	'G'
	.db #0x49	; 73	'I'
	.db #0x49	; 73	'I'
	.db #0x49	; 73	'I'
	.db #0x47	; 71	'G'
	.db #0x49	; 73	'I'
	.db #0x4C	; 76	'L'
	.db #0x49	; 73	'I'
	.db #0x4C	; 76	'L'
	.db #0x4E	; 78	'N'
	.db #0x4E	; 78	'N'
	.db #0x4E	; 78	'N'
	.db #0x4C	; 76	'L'
	.db #0x4E	; 78	'N'
	.db #0x51	; 81	'Q'
	.db #0x4E	; 78	'N'
	.db #0x47	; 71	'G'
	.db #0x49	; 73	'I'
	.db #0x49	; 73	'I'
	.db #0x49	; 73	'I'
	.db #0x47	; 71	'G'
	.db #0x49	; 73	'I'
	.db #0x4C	; 76	'L'
	.db #0x49	; 73	'I'
	.db #0x4C	; 76	'L'
	.db #0x4E	; 78	'N'
	.db #0x4E	; 78	'N'
	.db #0x4E	; 78	'N'
	.db #0x4C	; 76	'L'
	.db #0x4E	; 78	'N'
	.db #0x51	; 81	'Q'
	.db #0x4E	; 78	'N'
	.db #0x47	; 71	'G'
	.db #0x49	; 73	'I'
	.db #0x49	; 73	'I'
	.db #0x49	; 73	'I'
	.db #0x47	; 71	'G'
	.db #0x49	; 73	'I'
	.db #0x4C	; 76	'L'
	.db #0x49	; 73	'I'
	.db #0x4C	; 76	'L'
	.db #0x4E	; 78	'N'
	.db #0x4E	; 78	'N'
	.db #0x4E	; 78	'N'
	.db #0x4C	; 76	'L'
	.db #0x4E	; 78	'N'
	.db #0x51	; 81	'Q'
	.db #0x4E	; 78	'N'
	.db #0x47	; 71	'G'
	.db #0x49	; 73	'I'
	.db #0x49	; 73	'I'
	.db #0x49	; 73	'I'
	.db #0x47	; 71	'G'
	.db #0x49	; 73	'I'
	.db #0x4C	; 76	'L'
	.db #0x49	; 73	'I'
	.db #0x4C	; 76	'L'
	.db #0x4E	; 78	'N'
	.db #0x4E	; 78	'N'
	.db #0x4E	; 78	'N'
	.db #0x4C	; 76	'L'
	.db #0x4E	; 78	'N'
	.db #0x51	; 81	'Q'
	.db #0x4E	; 78	'N'
	.db #0x47	; 71	'G'
	.db #0x49	; 73	'I'
	.db #0x49	; 73	'I'
	.db #0x49	; 73	'I'
	.db #0x47	; 71	'G'
	.db #0x49	; 73	'I'
	.db #0x4C	; 76	'L'
	.db #0x49	; 73	'I'
	.db #0x4C	; 76	'L'
	.db #0x4E	; 78	'N'
	.db #0x4E	; 78	'N'
	.db #0x4E	; 78	'N'
	.db #0x4C	; 76	'L'
	.db #0x4E	; 78	'N'
	.db #0x51	; 81	'Q'
	.db #0x4E	; 78	'N'
	.db #0x47	; 71	'G'
	.db #0x49	; 73	'I'
	.db #0x49	; 73	'I'
	.db #0x49	; 73	'I'
	.db #0x47	; 71	'G'
	.db #0x49	; 73	'I'
	.db #0x4C	; 76	'L'
	.db #0x49	; 73	'I'
	.db #0x00	; 0
	.db #0x3F	; 63
	.db #0x04	; 4
	.db #0xD5	; 213
	.db #0xFE	; 254
	.db #0xFE	; 254
	.db #0xD5	; 213
	.db #0xFE	; 254
	.db #0xFE	; 254
	.db #0xDD	; 221
	.db #0xFE	; 254
	.db #0xFE	; 254
	.db #0xDC	; 220
	.db #0xFE	; 254
	.db #0xFE	; 254
	.db #0xD5	; 213
	.db #0xFE	; 254
	.db #0xFE	; 254
	.db #0xD5	; 213
	.db #0xFE	; 254
	.db #0xFE	; 254
	.db #0xDD	; 221
	.db #0xFE	; 254
	.db #0xFE	; 254
	.db #0xDC	; 220
	.db #0xFE	; 254
	.db #0xFE	; 254
	.db #0xDA	; 218
	.db #0xFE	; 254
	.db #0xFE	; 254
	.db #0xDC	; 220
	.db #0xFE	; 254
	.db #0xFE	; 254
	.db #0xDA	; 218
	.db #0xFE	; 254
	.db #0xFE	; 254
	.db #0xD8	; 216
	.db #0xFE	; 254
	.db #0xFE	; 254
	.db #0xDA	; 218
	.db #0xFE	; 254
	.db #0xFE	; 254
	.db #0xDC	; 220
	.db #0xFE	; 254
	.db #0xFE	; 254
	.db #0xDA	; 218
	.db #0xFE	; 254
	.db #0xFE	; 254
	.db #0xD8	; 216
	.db #0xFE	; 254
	.db #0xFE	; 254
	.db #0xDA	; 218
	.db #0xFE	; 254
	.db #0xFE	; 254
	.db #0xD8	; 216
	.db #0xFE	; 254
	.db #0xFE	; 254
	.db #0x00	; 0
	.db #0x3F	; 63
	.db #0x04	; 4
	.db #0xDA	; 218
	.db #0xFE	; 254
	.db #0xFE	; 254
	.db #0xDC	; 220
	.db #0xFE	; 254
	.db #0xFE	; 254
	.db #0xDA	; 218
	.db #0xFE	; 254
	.db #0xFE	; 254
	.db #0xD8	; 216
	.db #0xFE	; 254
	.db #0xFE	; 254
	.db #0xDA	; 218
	.db #0xFE	; 254
	.db #0xFE	; 254
	.db #0xDC	; 220
	.db #0xFE	; 254
	.db #0xFE	; 254
	.db #0xDA	; 218
	.db #0xFE	; 254
	.db #0xFE	; 254
	.db #0xD8	; 216
	.db #0xFE	; 254
	.db #0xFE	; 254
	.db #0x3F	; 63
	.db #0x01	; 1
	.db #0x29	; 41
	.db #0x01	; 1
	.db #0x26	; 38
	.db #0x01	; 1
	.db #0x28	; 40
	.db #0x01	; 1
	.db #0x24	; 36
	.db #0x66	; 102	'f'
	.db #0x3F	; 63
	.db #0x02	; 2
	.db #0x26	; 38
	.db #0x3F	; 63
	.db #0x01	; 1
	.db #0x68	; 104	'h'
	.db #0x29	; 41
	.db #0x01	; 1
	.db #0x2B	; 43
	.db #0x01	; 1
	.db #0x2D	; 45
	.db #0x01	; 1
	.db #0x74	; 116	't'
	.db #0x41	; 65	'A'
	.db #0x70	; 112	'p'
	.db #0x3F	; 63
	.db #0x02	; 2
	.db #0xB0	; 176
	.db #0xBE	; 190
	.db #0x3F	; 63
	.db #0x05	; 5
	.db #0x70	; 112	'p'
	.db #0x3F	; 63
	.db #0x01	; 1
	.db #0x29	; 41
	.db #0x01	; 1
	.db #0x26	; 38
	.db #0x01	; 1
	.db #0x28	; 40
	.db #0x01	; 1
	.db #0x24	; 36
	.db #0x66	; 102	'f'
	.db #0x3F	; 63
	.db #0x02	; 2
	.db #0x26	; 38
	.db #0x3F	; 63
	.db #0x01	; 1
	.db #0x68	; 104	'h'
	.db #0x29	; 41
	.db #0x01	; 1
	.db #0x2B	; 43
	.db #0x01	; 1
	.db #0x2D	; 45
	.db #0x01	; 1
	.db #0x70	; 112	'p'
	.db #0x41	; 65	'A'
	.db #0x6B	; 107	'k'
	.db #0x3F	; 63
	.db #0x02	; 2
	.db #0xAB	; 171
	.db #0x3F	; 63
	.db #0x05	; 5
	.db #0xAB	; 171
	.db #0x3F	; 63
	.db #0x01	; 1
	.db #0x29	; 41
	.db #0x01	; 1
	.db #0x26	; 38
	.db #0x01	; 1
	.db #0x28	; 40
	.db #0x01	; 1
	.db #0x24	; 36
	.db #0x66	; 102	'f'
	.db #0x3F	; 63
	.db #0x02	; 2
	.db #0x26	; 38
	.db #0x3F	; 63
	.db #0x01	; 1
	.db #0x68	; 104	'h'
	.db #0x29	; 41
	.db #0x01	; 1
	.db #0x2B	; 43
	.db #0x01	; 1
	.db #0x2D	; 45
	.db #0x01	; 1
	.db #0x74	; 116	't'
	.db #0x41	; 65	'A'
	.db #0x70	; 112	'p'
	.db #0x3F	; 63
	.db #0x02	; 2
	.db #0xB0	; 176
	.db #0xBE	; 190
	.db #0x3F	; 63
	.db #0x01	; 1
	.db #0x32	; 50	'2'
	.db #0x34	; 52	'4'
	.db #0xB5	; 181
	.db #0xBE	; 190
	.db #0x34	; 52	'4'
	.db #0x32	; 50	'2'
	.db #0xB4	; 180
	.db #0xBE	; 190
	.db #0x32	; 50	'2'
	.db #0x30	; 48	'0'
	.db #0x32	; 50	'2'
	.db #0x01	; 1
	.db #0x6D	; 109	'm'
	.db #0x41	; 65	'A'
	.db #0x6B	; 107	'k'
	.db #0x3F	; 63
	.db #0x02	; 2
	.db #0xAB	; 171
	.db #0x3F	; 63
	.db #0x05	; 5
	.db #0x6B	; 107	'k'
	.db #0x3F	; 63
	.db #0x01	; 1
	.db #0x32	; 50	'2'
	.db #0x34	; 52	'4'
	.db #0xB5	; 181
	.db #0xBE	; 190
	.db #0x34	; 52	'4'
	.db #0x32	; 50	'2'
	.db #0xB4	; 180
	.db #0xBE	; 190
	.db #0x32	; 50	'2'
	.db #0x30	; 48	'0'
	.db #0x32	; 50	'2'
	.db #0x01	; 1
	.db #0x6D	; 109	'm'
	.db #0x41	; 65	'A'
	.db #0x6B	; 107	'k'
	.db #0x3F	; 63
	.db #0x02	; 2
	.db #0xAB	; 171
	.db #0x3F	; 63
	.db #0x05	; 5
	.db #0xAB	; 171
	.db #0x00	; 0
	.db #0x7F	; 127
	.db #0x00	; 0
	.db #0x7F	; 127
	.db #0x02	; 2
	.db #0x7F	; 127
	.db #0x02	; 2
	.db #0x7F	; 127
	.db #0x02	; 2
	.db #0x7F	; 127
	.db #0x00	; 0
	.db #0x7F	; 127
	.db #0x02	; 2
	.db #0x7F	; 127
	.db #0x02	; 2
	.db #0x7F	; 127
	.db #0x02	; 2
	.db #0x7F	; 127
	.db #0x00	; 0
	.db #0x7F	; 127
	.db #0x02	; 2
	.db #0x7F	; 127
	.db #0x02	; 2
	.db #0x7F	; 127
	.db #0x02	; 2
	.db #0x7F	; 127
	.db #0x00	; 0
	.db #0x7F	; 127
	.db #0x02	; 2
	.db #0x7F	; 127
	.db #0x02	; 2
	.db #0x7F	; 127
	.db #0x02	; 2
	.db #0x7F	; 127
	.db #0x00	; 0
	.db #0x7F	; 127
	.db #0x02	; 2
	.db #0x7F	; 127
	.db #0x02	; 2
	.db #0x7F	; 127
	.db #0x02	; 2
	.db #0x7F	; 127
	.db #0x00	; 0
	.db #0x7F	; 127
	.db #0x02	; 2
	.db #0x7F	; 127
	.db #0x02	; 2
	.db #0x7F	; 127
	.db #0x02	; 2
	.db #0x7F	; 127
	.db #0x00	; 0
	.db #0x7F	; 127
	.db #0x02	; 2
	.db #0x7F	; 127
	.db #0x02	; 2
	.db #0x7F	; 127
	.db #0x02	; 2
	.db #0x7F	; 127
	.db #0x00	; 0
	.db #0x7F	; 127
	.db #0x02	; 2
	.db #0x7F	; 127
	.db #0x02	; 2
	.db #0x7F	; 127
	.db #0x02	; 2
	.db #0x7F	; 127
	.db #0x00	; 0
	.db #0x7F	; 127
	.db #0x02	; 2
	.db #0x7F	; 127
	.db #0x02	; 2
	.db #0x7F	; 127
	.db #0x02	; 2
	.db #0x7F	; 127
	.db #0x00	; 0
	.db #0x7F	; 127
	.db #0x02	; 2
	.db #0x7F	; 127
	.db #0x02	; 2
	.db #0x7F	; 127
	.db #0x02	; 2
	.db #0x7F	; 127
	.db #0x00	; 0
	.db #0x7F	; 127
	.db #0x02	; 2
	.db #0x7F	; 127
	.db #0x02	; 2
	.db #0x7F	; 127
	.db #0x02	; 2
	.db #0x7F	; 127
	.db #0x00	; 0
	.db #0x7F	; 127
	.db #0x02	; 2
	.db #0x7F	; 127
	.db #0x02	; 2
	.db #0x7F	; 127
	.db #0x02	; 2
	.db #0x7F	; 127
	.db #0x00	; 0
	.db #0x7F	; 127
	.db #0x02	; 2
	.db #0x7F	; 127
	.db #0x02	; 2
	.db #0x7F	; 127
	.db #0x02	; 2
	.db #0x7F	; 127
	.db #0x00	; 0
	.db #0x7F	; 127
	.db #0x02	; 2
	.db #0x7F	; 127
	.db #0x02	; 2
	.db #0x7F	; 127
	.db #0x02	; 2
	.db #0x7F	; 127
	.db #0x00	; 0
	.db #0x7F	; 127
	.db #0x02	; 2
	.db #0x7F	; 127
	.db #0x02	; 2
	.db #0x7F	; 127
	.db #0x02	; 2
	.db #0x7F	; 127
	.db #0x00	; 0
	.db #0x7F	; 127
	.db #0x02	; 2
	.db #0x7F	; 127
	.db #0x02	; 2
	.db #0x7F	; 127
	.db #0x02	; 2
	.db #0x7F	; 127
	.db #0x00	; 0
	.db #0x7F	; 127
	.db #0x02	; 2
	.db #0x7F	; 127
	.db #0x02	; 2
	.db #0x7F	; 127
	.db #0x02	; 2
	.db #0x7F	; 127
	.db #0x01	; 1
	.db #0x7F	; 127
	.db #0x02	; 2
	.db #0x7F	; 127
	.db #0x02	; 2
	.db #0x7F	; 127
	.db #0x02	; 2
	.db #0x7F	; 127
	.db #0x00	; 0
	.db #0x7F	; 127
	.db #0x02	; 2
	.db #0x7F	; 127
	.db #0x00	; 0
	.db #0x7F	; 127
	.db #0x02	; 2
	.db #0x7F	; 127
	.db #0x01	; 1
	.db #0x7F	; 127
	.db #0x02	; 2
	.db #0x7F	; 127
	.db #0x02	; 2
	.db #0x7F	; 127
	.db #0x02	; 2
	.db #0x7F	; 127
	.db #0x00	; 0
	.db #0x7F	; 127
	.db #0x02	; 2
	.db #0x7F	; 127
	.db #0x02	; 2
	.db #0x7F	; 127
	.db #0x02	; 2
	.db #0x7F	; 127
	.db #0x01	; 1
	.db #0x7F	; 127
	.db #0x02	; 2
	.db #0x7F	; 127
	.db #0x02	; 2
	.db #0x7F	; 127
	.db #0x02	; 2
	.db #0x7F	; 127
	.db #0x00	; 0
	.db #0x7F	; 127
	.db #0x02	; 2
	.db #0x7F	; 127
	.db #0x00	; 0
	.db #0x7F	; 127
	.db #0x02	; 2
	.db #0x7F	; 127
	.db #0x01	; 1
	.db #0x7F	; 127
	.db #0x02	; 2
	.db #0x7F	; 127
	.db #0x02	; 2
	.db #0x7F	; 127
	.db #0x02	; 2
	.db #0x7F	; 127
	.db #0x00	; 0
	.db #0x7F	; 127
	.db #0x02	; 2
	.db #0x7F	; 127
	.db #0x02	; 2
	.db #0x7F	; 127
	.db #0x02	; 2
	.db #0x7F	; 127
	.db #0x01	; 1
	.db #0x7F	; 127
	.db #0x02	; 2
	.db #0x7F	; 127
	.db #0x02	; 2
	.db #0x7F	; 127
	.db #0x02	; 2
	.db #0x7F	; 127
	.db #0x00	; 0
	.db #0x7F	; 127
	.db #0x02	; 2
	.db #0x7F	; 127
	.db #0x00	; 0
	.db #0x7F	; 127
	.db #0x02	; 2
	.db #0x7F	; 127
	.db #0x01	; 1
	.db #0x7F	; 127
	.db #0x02	; 2
	.db #0x7F	; 127
	.db #0x02	; 2
	.db #0x7F	; 127
	.db #0x02	; 2
	.db #0x7F	; 127
	.db #0x00	; 0
	.db #0x7F	; 127
	.db #0x02	; 2
	.db #0x7F	; 127
	.db #0x02	; 2
	.db #0x7F	; 127
	.db #0x02	; 2
	.db #0x7F	; 127
	.db #0x01	; 1
	.db #0x7F	; 127
	.db #0x02	; 2
	.db #0x7F	; 127
	.db #0x02	; 2
	.db #0x7F	; 127
	.db #0x02	; 2
	.db #0x7F	; 127
	.db #0x00	; 0
	.db #0x7F	; 127
	.db #0x02	; 2
	.db #0x7F	; 127
	.db #0x00	; 0
	.db #0x7F	; 127
	.db #0x02	; 2
	.db #0x7F	; 127
	.db #0x01	; 1
	.db #0x7F	; 127
	.db #0x02	; 2
	.db #0x7F	; 127
	.db #0x02	; 2
	.db #0x7F	; 127
	.db #0x02	; 2
	.db #0x7F	; 127
	.db #0x00	; 0
	.db #0x7F	; 127
	.db #0x02	; 2
	.db #0x7F	; 127
	.db #0x02	; 2
	.db #0x7F	; 127
	.db #0x02	; 2
	.db #0x7F	; 127
	.db #0x01	; 1
	.db #0x7F	; 127
	.db #0x02	; 2
	.db #0x7F	; 127
	.db #0x02	; 2
	.db #0x7F	; 127
	.db #0x02	; 2
	.db #0x7F	; 127
	.db #0x00	; 0
	.db #0x7F	; 127
	.db #0x02	; 2
	.db #0x7F	; 127
	.db #0x00	; 0
	.db #0x7F	; 127
	.db #0x02	; 2
	.db #0x7F	; 127
	.db #0x01	; 1
	.db #0x7F	; 127
	.db #0x02	; 2
	.db #0x7F	; 127
	.db #0x02	; 2
	.db #0x7F	; 127
	.db #0x02	; 2
	.db #0x7F	; 127
	.db #0x00	; 0
	.db #0x7F	; 127
	.db #0x02	; 2
	.db #0x7F	; 127
	.db #0x02	; 2
	.db #0x7F	; 127
	.db #0x02	; 2
	.db #0x7F	; 127
	.db #0x01	; 1
	.db #0x7F	; 127
	.db #0x02	; 2
	.db #0x7F	; 127
	.db #0x02	; 2
	.db #0x7F	; 127
	.db #0x02	; 2
	.db #0x7F	; 127
	.db #0x00	; 0
	.db #0x7F	; 127
	.db #0x02	; 2
	.db #0x7F	; 127
	.db #0x00	; 0
	.db #0x7F	; 127
	.db #0x02	; 2
	.db #0x7F	; 127
	.db #0x01	; 1
	.db #0x7F	; 127
	.db #0x02	; 2
	.db #0x7F	; 127
	.db #0x02	; 2
	.db #0x7F	; 127
	.db #0x02	; 2
	.db #0x7F	; 127
	.db #0x00	; 0
	.db #0x7F	; 127
	.db #0x02	; 2
	.db #0x7F	; 127
	.db #0x02	; 2
	.db #0x7F	; 127
	.db #0x02	; 2
	.db #0x7F	; 127
	.db #0x01	; 1
	.db #0x7F	; 127
	.db #0x02	; 2
	.db #0x7F	; 127
	.db #0x02	; 2
	.db #0x7F	; 127
	.db #0x02	; 2
	.db #0x7F	; 127
	.db #0x00	; 0
	.db #0x7F	; 127
	.db #0x02	; 2
	.db #0x7F	; 127
	.db #0x00	; 0
	.db #0x7F	; 127
	.db #0x02	; 2
	.db #0x7F	; 127
	.db #0x01	; 1
	.db #0x7F	; 127
	.db #0x02	; 2
	.db #0x7F	; 127
	.db #0x02	; 2
	.db #0x7F	; 127
	.db #0x02	; 2
	.db #0x7F	; 127
	.db #0x00	; 0
	.db #0x7F	; 127
	.db #0x02	; 2
	.db #0x7F	; 127
	.db #0x02	; 2
	.db #0x7F	; 127
	.db #0x02	; 2
	.db #0x7F	; 127
	.db #0x01	; 1
	.db #0x7F	; 127
	.db #0x02	; 2
	.db #0x7F	; 127
	.db #0x02	; 2
	.db #0x7F	; 127
	.db #0x02	; 2
	.db #0x7F	; 127
	.db #0x00	; 0
	.db #0x7F	; 127
	.db #0x02	; 2
	.db #0x7F	; 127
	.db #0x00	; 0
	.db #0x7F	; 127
	.db #0x02	; 2
	.db #0x7F	; 127
	.db #0x01	; 1
	.db #0x7F	; 127
	.db #0x02	; 2
	.db #0x7F	; 127
	.db #0x02	; 2
	.db #0x7F	; 127
	.db #0x02	; 2
	.db #0x7F	; 127
	.db #0x00	; 0
	.db #0x7F	; 127
	.db #0x02	; 2
	.db #0x7F	; 127
	.db #0x02	; 2
	.db #0x7F	; 127
	.db #0x02	; 2
	.db #0x7F	; 127
	.db #0x01	; 1
	.db #0x7F	; 127
	.db #0x02	; 2
	.db #0x7F	; 127
	.db #0x02	; 2
	.db #0x7F	; 127
	.db #0x02	; 2
	.db #0x7F	; 127
	.db #0x00	; 0
	.db #0x7F	; 127
	.db #0x02	; 2
	.db #0x7F	; 127
	.db #0x00	; 0
	.db #0x7F	; 127
	.db #0x02	; 2
	.db #0x7F	; 127
	.db #0x01	; 1
	.db #0x7F	; 127
	.db #0x02	; 2
	.db #0x7F	; 127
	.db #0x02	; 2
	.db #0x7F	; 127
	.db #0x02	; 2
	.db #0x7F	; 127
	.db #0x00	; 0
	.db #0x7F	; 127
	.db #0x02	; 2
	.db #0x7F	; 127
	.db #0x02	; 2
	.db #0x7F	; 127
	.db #0x02	; 2
	.db #0x7F	; 127
	.db #0x01	; 1
	.db #0x7F	; 127
	.db #0x02	; 2
	.db #0x7F	; 127
	.db #0x02	; 2
	.db #0x7F	; 127
	.db #0x02	; 2
	.db #0x7F	; 127
	.db #0x00	; 0
	.db #0x7F	; 127
	.db #0x02	; 2
	.db #0x7F	; 127
	.db #0x00	; 0
	.db #0x7F	; 127
	.db #0x02	; 2
	.db #0x7F	; 127
	.db #0x01	; 1
	.db #0x7F	; 127
	.db #0x02	; 2
	.db #0x7F	; 127
	.db #0x02	; 2
	.db #0x7F	; 127
	.db #0x02	; 2
	.db #0x7F	; 127
	.db #0x00	; 0
	.db #0x7F	; 127
	.db #0x02	; 2
	.db #0x7F	; 127
	.db #0x02	; 2
	.db #0x7F	; 127
	.db #0x02	; 2
	.db #0x7F	; 127
	.db #0x01	; 1
	.db #0x7F	; 127
	.db #0x02	; 2
	.db #0x7F	; 127
	.db #0x02	; 2
	.db #0x7F	; 127
	.db #0x02	; 2
	.db #0x7F	; 127
	.db #0x00	; 0
	.db #0x7F	; 127
	.db #0x02	; 2
	.db #0x7F	; 127
	.db #0x00	; 0
	.db #0x7F	; 127
	.db #0x02	; 2
	.db #0x7F	; 127
	.db #0x01	; 1
	.db #0x7F	; 127
	.db #0x02	; 2
	.db #0x7F	; 127
	.db #0x02	; 2
	.db #0x7F	; 127
	.db #0x02	; 2
	.db #0x7F	; 127
	.db #0x00	; 0
	.db #0x7F	; 127
	.db #0x02	; 2
	.db #0x7F	; 127
	.db #0x02	; 2
	.db #0x7F	; 127
	.db #0x02	; 2
	.db #0x7F	; 127
	.db #0x01	; 1
	.db #0x7F	; 127
	.db #0x02	; 2
	.db #0x7F	; 127
	.db #0x02	; 2
	.db #0x7F	; 127
	.db #0x02	; 2
	.db #0x7F	; 127
	.db #0x00	; 0
	.db #0x7F	; 127
	.db #0x02	; 2
	.db #0x7F	; 127
	.db #0x00	; 0
	.db #0x7F	; 127
	.db #0x02	; 2
	.db #0x7F	; 127
	.db #0x01	; 1
	.db #0x7F	; 127
	.db #0x02	; 2
	.db #0x7F	; 127
	.db #0x02	; 2
	.db #0x7F	; 127
	.db #0x02	; 2
	.db #0x7F	; 127
	.db #0x00	; 0
	.db #0x7F	; 127
	.db #0x02	; 2
	.db #0x7F	; 127
	.db #0x02	; 2
	.db #0x7F	; 127
	.db #0x02	; 2
	.db #0x7F	; 127
	.db #0x01	; 1
	.db #0x7F	; 127
	.db #0x02	; 2
	.db #0x7F	; 127
	.db #0x02	; 2
	.db #0x7F	; 127
	.db #0x02	; 2
	.db #0x7F	; 127
	.db #0x00	; 0
	.db #0x7F	; 127
	.db #0x02	; 2
	.db #0x7F	; 127
	.db #0x00	; 0
	.db #0x7F	; 127
	.db #0x02	; 2
	.db #0x7F	; 127
	.db #0x01	; 1
	.db #0x7F	; 127
	.db #0x02	; 2
	.db #0x7F	; 127
	.db #0x02	; 2
	.db #0x7F	; 127
	.db #0x02	; 2
	.db #0x7F	; 127
	.db #0x00	; 0
	.db #0x7F	; 127
	.db #0x02	; 2
	.db #0x7F	; 127
	.db #0x02	; 2
	.db #0x7F	; 127
	.db #0x02	; 2
	.db #0x7F	; 127
	.db #0x01	; 1
	.db #0x7F	; 127
	.db #0x02	; 2
	.db #0x7F	; 127
	.db #0x02	; 2
	.db #0x7F	; 127
	.db #0x02	; 2
	.db #0x7F	; 127
	.db #0x00	; 0
	.db #0x7F	; 127
	.db #0x02	; 2
	.db #0x7F	; 127
	.db #0x00	; 0
	.db #0x7F	; 127
	.db #0x02	; 2
	.db #0x7F	; 127
	.db #0x01	; 1
	.db #0x7F	; 127
	.db #0x02	; 2
	.db #0x7F	; 127
	.db #0x01	; 1
	.db #0x7F	; 127
	.db #0x01	; 1
	.db #0x00	; 0
	.db #0x00	; 0
_pelota:
	.db #0x01	;  1
	.db #0x0E	;  14
	.db #0x00	;  0
	.db #0x03	;  3
	.db #0x0F	;  15
	.db #0x00	;  0
	.db #0x07	;  7
	.db #0x2D	;  45
	.db #0x08	;  8
	.db #0x0F	;  15
	.db #0x1E	;  30
	.db #0x0C	;  12
	.db #0x0F	;  15
	.db #0x0F	;  15
	.db #0x0C	;  12
	.db #0x0F	;  15
	.db #0x1E	;  30
	.db #0x0C	;  12
	.db #0x0F	;  15
	.db #0x07	;  7
	.db #0x0C	;  12
	.db #0x0F	;  15
	.db #0x0B	;  11
	.db #0x0C	;  12
	.db #0x07	;  7
	.db #0x0F	;  15
	.db #0x08	;  8
	.db #0x03	;  3
	.db #0x0F	;  15
	.db #0x00	;  0
	.db #0x01	;  1
	.db #0x0E	;  14
	.db #0x00	;  0
;code.c:57: void pause(void){
;	---------------------------------
; Function pause
; ---------------------------------
_pause::
;code.c:65: __endasm;
	ld b,#10
	 kolo:
	halt
	djnz kolo
	ret
;code.c:70: main(){
;	---------------------------------
; Function main
; ---------------------------------
_main::
	ld	hl,#-10
	add	hl,sp
	ld	sp,hl
;code.c:71: unsigned char tema=0;
	ld	iy,#0
	add	iy,sp
	ld	0 (iy),#0x00
;code.c:77: MaxX=60;
	ld	iy,#6
	add	iy,sp
	ld	0 (iy),#0x3C
;code.c:78: MaxY=110;
	ld	iy,#5
	add	iy,sp
	ld	0 (iy),#0x6E
;code.c:79: MinX=0;
	ld	iy,#1
	add	iy,sp
	ld	0 (iy),#0x00
;code.c:80: MinY=5;
	ld	iy,#3
	add	iy,sp
	ld	0 (iy),#0x05
;code.c:81: VertSpd=1;
	ld	iy,#4
	add	iy,sp
	ld	0 (iy),#0x01
;code.c:82: HorzSpd=1;
	ld	iy,#8
	add	iy,sp
	ld	0 (iy),#0x01
;code.c:86: cpc_SetModo(1);
	ld	l,#0x01
	call	_cpc_SetModo
;code.c:91: cpc_PrintStr("SFX & MUSIC DEMO. CPCRSLIB 2012-15");
	ld	hl,#___str_0
	call	_cpc_PrintStr
;code.c:92: cpc_PrintStr("PSG PROPLAYER BY WYZ 2010");
	ld	hl,#___str_1
	call	_cpc_PrintStr
;code.c:93: cpc_PrintStr("Press keys 1 to 4 to play SFX");
	ld	hl,#___str_2
	call	_cpc_PrintStr
;code.c:94: cpc_PrintStr("Up & Down to change song");
	ld	hl,#___str_3
	call	_cpc_PrintStr
;code.c:95: cpc_PrintStr("ESC to Quit");
	ld	hl,#___str_4
	call	_cpc_PrintStr
;code.c:98: cpc_DisableFirmware();
	call	_cpc_DisableFirmware
;code.c:100: cpc_AssignKey(0,0x4801);		// key "1" assigned to 0
	ld	hl,#0x4801
	push	hl
	xor	a, a
	push	af
	inc	sp
	call	_cpc_AssignKey
	pop	af
	inc	sp
;code.c:101: cpc_AssignKey(1,0x4802);		// key "2"
	ld	hl,#0x4802
	push	hl
	ld	a,#0x01
	push	af
	inc	sp
	call	_cpc_AssignKey
	pop	af
	inc	sp
;code.c:102: cpc_AssignKey(2,0x4702);		// key "3"
	ld	hl,#0x4702
	push	hl
	ld	a,#0x02
	push	af
	inc	sp
	call	_cpc_AssignKey
	pop	af
	inc	sp
;code.c:103: cpc_AssignKey(3,0x4701);		// key "4"
	ld	hl,#0x4701
	push	hl
	ld	a,#0x03
	push	af
	inc	sp
	call	_cpc_AssignKey
	pop	af
	inc	sp
;code.c:104: cpc_AssignKey(4,0x4804);		// key "ESC"
	ld	hl,#0x4804
	push	hl
	ld	a,#0x04
	push	af
	inc	sp
	call	_cpc_AssignKey
	pop	af
	inc	sp
;code.c:105: cpc_AssignKey(5,0x4001);		// key "Up"
	ld	hl,#0x4001
	push	hl
	ld	a,#0x05
	push	af
	inc	sp
	call	_cpc_AssignKey
	pop	af
	inc	sp
;code.c:106: cpc_AssignKey(6,0x4004);		// key "Down"
	ld	hl,#0x4004
	push	hl
	ld	a,#0x06
	push	af
	inc	sp
	call	_cpc_AssignKey
	pop	af
	inc	sp
;code.c:108: cpc_SetColour(0,20);        //set background = black
	ld	hl,#0x1400
	push	hl
	call	_cpc_SetColour
;code.c:109: cpc_SetColour(16,20);       //set border = black
	ld	hl,#0x1410
	push	hl
	call	_cpc_SetColour
;code.c:111: cpc_SetInkGphStrM1(0,0);
	ld	hl,#0x0000
	push	hl
	call	_cpc_SetInkGphStrM1
;code.c:112: cpc_SetInkGphStrM1(1,8);
	ld	hl,#0x0801
	push	hl
	call	_cpc_SetInkGphStrM1
;code.c:113: cpc_SetInkGphStrM1(2,128);
	ld	hl,#0x8002
	push	hl
	call	_cpc_SetInkGphStrM1
;code.c:114: cpc_SetInkGphStrM1(3,136);
	ld	hl,#0x8803
	push	hl
	call	_cpc_SetInkGphStrM1
;code.c:117: cpc_WyzInitPlayer(SOUND_TABLE_0, RULE_TABLE_0, EFFECT_TABLE, SONG_TABLE_0);		//initialize data
	ld	hl,#_SOUND_TABLE_0
	ld	bc,#_SONG_TABLE_0
	push	bc
	ld	bc,#_EFFECT_TABLE
	push	bc
	ld	bc,#_RULE_TABLE_0
	push	bc
	push	hl
	call	_cpc_WyzInitPlayer
	ld	hl,#8
	add	hl,sp
	ld	sp,hl
;code.c:118: cpc_WyzLoadSong(0);	//Select song to play (uncompress it and the start to play)
	xor	a, a
	push	af
	inc	sp
	call	_cpc_WyzLoadSong
	inc	sp
;code.c:119: cpc_WyzSetPlayerOn();		//start music and sound effects (SFX)
	call	_cpc_WyzSetPlayerOn
;code.c:120: nuevotema=1;
	ld	iy,#7
	add	iy,sp
	ld	0 (iy),#0x01
;code.c:123: cx=28;
	ld	iy,#9
	add	iy,sp
	ld	0 (iy),#0x1C
;code.c:124: cy=20;
	ld	iy,#2
	add	iy,sp
	ld	0 (iy),#0x14
;code.c:126: cpc_PutSpXOR(pelota, 11, 3, cpc_GetScrAddress(cx,cy));
	ld	hl,#0x141C
	push	hl
	call	_cpc_GetScrAddress
	ld	c,l
	ld	b,h
	ld	de,#_pelota
	push	bc
	ld	hl,#0x030B
	push	hl
	push	de
	call	_cpc_PutSpXOR
;code.c:128: cpc_ScanKeyboard();			//Reads whole keyboard. It's requiered in order to use cpc_TestKeyF
	call	_cpc_ScanKeyboard
;code.c:129: while (!cpc_TestKeyF(4)) {	//cpc_TestKeyF is faster when more than 3 keys gonna be tested
00137$:
	ld	l,#0x04
	call	_cpc_TestKeyF
	ld	a,l
	or	a, a
	jp	NZ,00139$
;code.c:131: pause();
	call	_pause
;code.c:135: HorzSpd = -HorzSpd;
	xor	a, a
	ld	iy,#8
	add	iy,sp
	sub	a, 0 (iy)
	ld	d,a
;code.c:133: if (cx >= MaxX)
	ld	hl,#6
	add	hl,sp
	ld	iy,#9
	add	iy,sp
	ld	a,0 (iy)
	sub	a, (hl)
	jp	PO, 00210$
	xor	a, #0x80
00210$:
	jp	M,00104$
;code.c:135: HorzSpd = -HorzSpd;
	ld	iy,#8
	add	iy,sp
	ld	0 (iy),d
;code.c:136: cx = MaxX;
	ld	hl, #6+0
	add	hl, sp
	ld	a, (hl)
	ld	iy,#9
	add	iy,sp
	ld	0 (iy),a
	jr	00105$
00104$:
;code.c:138: else if (cx <= MinX)
	ld	hl,#1
	add	hl,sp
	ld	a,(hl)
	ld	iy,#9
	add	iy,sp
	sub	a, 0 (iy)
	jp	PO, 00211$
	xor	a, #0x80
00211$:
	jp	M,00105$
;code.c:140: HorzSpd = -HorzSpd;
	ld	iy,#8
	add	iy,sp
	ld	0 (iy),d
;code.c:141: cx = MinX;
	ld	hl, #1+0
	add	hl, sp
	ld	a, (hl)
	ld	iy,#9
	add	iy,sp
	ld	0 (iy),a
00105$:
;code.c:146: VertSpd = -VertSpd;
	xor	a, a
	ld	iy,#4
	add	iy,sp
	sub	a, 0 (iy)
	ld	d,a
;code.c:144: if (cy >= MaxY)
	ld	hl,#5
	add	hl,sp
	ld	iy,#2
	add	iy,sp
	ld	a,0 (iy)
	sub	a, (hl)
	jp	PO, 00212$
	xor	a, #0x80
00212$:
	jp	M,00109$
;code.c:146: VertSpd = -VertSpd;
	ld	iy,#4
	add	iy,sp
	ld	0 (iy),d
;code.c:147: cy = MaxY;
	ld	iy,#5
	add	iy,sp
	ld	a,0 (iy)
	ld	iy,#2
	add	iy,sp
	ld	0 (iy),a
	jr	00110$
00109$:
;code.c:149: else if (cy <= MinY)
	ld	hl,#3
	add	hl,sp
	ld	a,(hl)
	ld	iy,#2
	add	iy,sp
	sub	a, 0 (iy)
	jp	PO, 00213$
	xor	a, #0x80
00213$:
	jp	M,00110$
;code.c:151: VertSpd = -VertSpd;
	ld	iy,#4
	add	iy,sp
	ld	0 (iy),d
;code.c:152: cy = MinY;
	ld	iy,#3
	add	iy,sp
	ld	a,0 (iy)
	ld	iy,#2
	add	iy,sp
	ld	0 (iy),a
00110$:
;code.c:157: cpc_PutSpXOR(pelota, 11, 3, cpc_GetScrAddress(cx,cy));
	ld	iy,#2
	add	iy,sp
	ld	a,0 (iy)
	push	af
	inc	sp
	ld	iy,#10
	add	iy,sp
	ld	a,0 (iy)
	push	af
	inc	sp
	call	_cpc_GetScrAddress
	ld	de,#_pelota
	push	hl
	ld	hl,#0x030B
	push	hl
	push	de
	call	_cpc_PutSpXOR
;code.c:158: cx += HorzSpd;
	ld	hl,#8
	add	hl,sp
	push	de
	ld	iy,#11
	add	iy,sp
	push	iy
	pop	de
	ld	a,(de)
	add	a, (hl)
	ld	(de),a
	pop	de
;code.c:159: cy += VertSpd;
	ld	hl,#4
	add	hl,sp
	push	de
	ld	iy,#4
	add	iy,sp
	push	iy
	pop	de
	ld	a,(de)
	add	a, (hl)
	ld	(de),a
	pop	de
;code.c:160: cpc_PutSpXOR(pelota, 11, 3, cpc_GetScrAddress(cx,cy));
	ld	a,0 (iy)
	push	af
	inc	sp
	ld	iy,#10
	add	iy,sp
	ld	a,0 (iy)
	push	af
	inc	sp
	call	_cpc_GetScrAddress
	ld	de,#_pelota
	push	hl
	ld	hl,#0x030B
	push	hl
	push	de
	call	_cpc_PutSpXOR
;code.c:163: cpc_ScanKeyboard();
	call	_cpc_ScanKeyboard
;code.c:164: if ((cpc_WyzTestPlayer()&8)==0) {	//test if bit 3 is 0 in order to allow another effect.
	call	_cpc_WyzTestPlayer
	bit	3, l
	jp	NZ,00137$
;code.c:166: if (cpc_TestKeyF(0)==1) 	cpc_WyzStartEffect(0,0);	//(Channel, SFX #)
	ld	l,#0x00
	call	_cpc_TestKeyF
	dec	l
	jr	NZ,00112$
	ld	hl,#0x0000
	push	hl
	call	_cpc_WyzStartEffect
	pop	af
00112$:
;code.c:167: if (cpc_TestKeyF(1)==1) 	cpc_WyzStartEffect(1,1);
	ld	l,#0x01
	call	_cpc_TestKeyF
	dec	l
	jr	NZ,00114$
	ld	hl,#0x0101
	push	hl
	call	_cpc_WyzStartEffect
	pop	af
00114$:
;code.c:168: if (cpc_TestKeyF(2)==1) 	cpc_WyzStartEffect(2,2);
	ld	l,#0x02
	call	_cpc_TestKeyF
	dec	l
	jr	NZ,00116$
	ld	hl,#0x0202
	push	hl
	call	_cpc_WyzStartEffect
	pop	af
00116$:
;code.c:169: if (cpc_TestKeyF(3)==1) 	cpc_WyzStartEffect(1,3);
	ld	l,#0x03
	call	_cpc_TestKeyF
	dec	l
	jr	NZ,00118$
	ld	hl,#0x0301
	push	hl
	call	_cpc_WyzStartEffect
	pop	af
00118$:
;code.c:170: if (cpc_TestKeyF(5)==1)	{
	ld	l,#0x05
	call	_cpc_TestKeyF
	dec	l
	jr	NZ,00122$
;code.c:171: if (tema>0) {
	ld	iy,#0
	add	iy,sp
	ld	a,0 (iy)
	or	a, a
	jr	Z,00122$
;code.c:172: tema--;
	dec	0 (iy)
;code.c:173: nuevotema=1;
	ld	iy,#7
	add	iy,sp
	ld	0 (iy),#0x01
00122$:
;code.c:176: if (cpc_TestKeyF(6)==1)	{
	ld	l,#0x06
	call	_cpc_TestKeyF
	dec	l
	jr	NZ,00126$
;code.c:177: if (tema<4) {
	ld	iy,#0
	add	iy,sp
	ld	a,0 (iy)
	sub	a, #0x04
	jr	NC,00126$
;code.c:178: tema++;
	inc	0 (iy)
;code.c:179: nuevotema=1;
	ld	iy,#7
	add	iy,sp
	ld	0 (iy),#0x01
00126$:
;code.c:182: if (nuevotema==1){
	ld	iy,#7
	add	iy,sp
	ld	a,0 (iy)
	dec	a
	jp	NZ,00137$
;code.c:183: cpc_WyzSetPlayerOff();
	call	_cpc_WyzSetPlayerOff
;code.c:184: cpc_PrintGphStrXYM1("NOW;PLAYING:",1,112);
	ld	de,#___str_5
	ld	hl,#0x7001
	push	hl
	push	de
	call	_cpc_PrintGphStrXYM1
;code.c:185: switch (tema) {
	ld	a,#0x04
	ld	iy,#0
	add	iy,sp
	sub	a, 0 (iy)
	jp	C,00132$
	ld	e,0 (iy)
	ld	d,#0x00
	ld	hl,#00230$
	add	hl,de
	add	hl,de
	add	hl,de
	jp	(hl)
00230$:
	jp	00127$
	jp	00128$
	jp	00129$
	jp	00130$
	jp	00131$
;code.c:186: case 0:
00127$:
;code.c:187: cpc_WyzInitPlayer(SOUND_TABLE_0, RULE_TABLE_0, EFFECT_TABLE, SONG_TABLE_0);	//initialize data
	ld	hl,#_SOUND_TABLE_0
	ld	bc,#_SONG_TABLE_0
	push	bc
	ld	bc,#_EFFECT_TABLE
	push	bc
	ld	bc,#_RULE_TABLE_0
	push	bc
	push	hl
	call	_cpc_WyzInitPlayer
	ld	hl,#8
	add	hl,sp
	ld	sp,hl
;code.c:188: cpc_PrintGphStrXYM12X(texto09,1,120);
	ld	de,#_texto09
	ld	hl,#0x7801
	push	hl
	push	de
	call	_cpc_PrintGphStrXYM12X
;code.c:189: cpc_PrintGphStrXYM12X(texto04,1,120);
	ld	de,#_texto04
	ld	hl,#0x7801
	push	hl
	push	de
	call	_cpc_PrintGphStrXYM12X
;code.c:190: break;
	jp	00132$
;code.c:191: case 1:
00128$:
;code.c:192: cpc_WyzInitPlayer(SOUND_TABLE_1, RULE_TABLE_1, EFFECT_TABLE, SONG_TABLE_1);		//initialize data
	ld	hl,#_SOUND_TABLE_1
	ld	bc,#_SONG_TABLE_1
	push	bc
	ld	bc,#_EFFECT_TABLE
	push	bc
	ld	bc,#_RULE_TABLE_1
	push	bc
	push	hl
	call	_cpc_WyzInitPlayer
	ld	hl,#8
	add	hl,sp
	ld	sp,hl
;code.c:193: cpc_PrintGphStrXYM12X(texto09,1,120);
	ld	de,#_texto09
	ld	hl,#0x7801
	push	hl
	push	de
	call	_cpc_PrintGphStrXYM12X
;code.c:194: cpc_PrintGphStrXYM12X(texto05,1,120);
	ld	de,#_texto05
	ld	hl,#0x7801
	push	hl
	push	de
	call	_cpc_PrintGphStrXYM12X
;code.c:195: break;
	jp	00132$
;code.c:196: case 2:
00129$:
;code.c:197: cpc_WyzInitPlayer(SOUND_TABLE_2, RULE_TABLE_2, EFFECT_TABLE, SONG_TABLE_2);		//initialize data
	ld	hl,#_SOUND_TABLE_2
	ld	bc,#_SONG_TABLE_2
	push	bc
	ld	bc,#_EFFECT_TABLE
	push	bc
	ld	bc,#_RULE_TABLE_2
	push	bc
	push	hl
	call	_cpc_WyzInitPlayer
	ld	hl,#8
	add	hl,sp
	ld	sp,hl
;code.c:198: cpc_PrintGphStrXYM12X(texto09,1,120);
	ld	de,#_texto09
	ld	hl,#0x7801
	push	hl
	push	de
	call	_cpc_PrintGphStrXYM12X
;code.c:199: cpc_PrintGphStrXYM12X(texto06,1,120);
	ld	de,#_texto06
	ld	hl,#0x7801
	push	hl
	push	de
	call	_cpc_PrintGphStrXYM12X
;code.c:200: break;
	jr	00132$
;code.c:201: case 3:
00130$:
;code.c:202: cpc_WyzInitPlayer(SOUND_TABLE_3, RULE_TABLE_3, EFFECT_TABLE, SONG_TABLE_3);		//initialize data
	ld	hl,#_SOUND_TABLE_3
	ld	bc,#_SONG_TABLE_3
	push	bc
	ld	bc,#_EFFECT_TABLE
	push	bc
	ld	bc,#_RULE_TABLE_3
	push	bc
	push	hl
	call	_cpc_WyzInitPlayer
	ld	hl,#8
	add	hl,sp
	ld	sp,hl
;code.c:203: cpc_PrintGphStrXYM12X(texto09,1,120);
	ld	de,#_texto09
	ld	hl,#0x7801
	push	hl
	push	de
	call	_cpc_PrintGphStrXYM12X
;code.c:204: cpc_PrintGphStrXYM12X(texto07,1,120);
	ld	de,#_texto07
	ld	hl,#0x7801
	push	hl
	push	de
	call	_cpc_PrintGphStrXYM12X
;code.c:205: break;
	jr	00132$
;code.c:206: case 4:
00131$:
;code.c:207: cpc_WyzInitPlayer(SOUND_TABLE_4, RULE_TABLE_4, EFFECT_TABLE, SONG_TABLE_4);		//initialize data
	ld	hl,#_SOUND_TABLE_4
	ld	bc,#_SONG_TABLE_4
	push	bc
	ld	bc,#_EFFECT_TABLE
	push	bc
	ld	bc,#_RULE_TABLE_4
	push	bc
	push	hl
	call	_cpc_WyzInitPlayer
	ld	hl,#8
	add	hl,sp
	ld	sp,hl
;code.c:208: cpc_PrintGphStrXYM12X(texto09,1,120);
	ld	de,#_texto09
	ld	hl,#0x7801
	push	hl
	push	de
	call	_cpc_PrintGphStrXYM12X
;code.c:209: cpc_PrintGphStrXYM12X(texto08,1,120);
	ld	de,#_texto08
	ld	hl,#0x7801
	push	hl
	push	de
	call	_cpc_PrintGphStrXYM12X
;code.c:211: }
00132$:
;code.c:212: cpc_WyzLoadSong(0);			//Select song to play
	xor	a, a
	push	af
	inc	sp
	call	_cpc_WyzLoadSong
	inc	sp
;code.c:213: cpc_WyzSetPlayerOn();		//start music and sound effects (SFX)
	call	_cpc_WyzSetPlayerOn
;code.c:214: nuevotema=0;
	ld	iy,#7
	add	iy,sp
	ld	0 (iy),#0x00
;code.c:217: MaxX=60;
	ld	iy,#6
	add	iy,sp
	ld	0 (iy),#0x3C
;code.c:218: MaxY=110;
	ld	iy,#5
	add	iy,sp
	ld	0 (iy),#0x6E
;code.c:219: MinX=0;
	ld	iy,#1
	add	iy,sp
	ld	0 (iy),#0x00
;code.c:220: MinY=5;
	ld	iy,#3
	add	iy,sp
	ld	0 (iy),#0x05
;code.c:221: VertSpd=1;
	ld	iy,#4
	add	iy,sp
	ld	0 (iy),#0x01
;code.c:222: HorzSpd=1;
	ld	iy,#8
	add	iy,sp
	ld	0 (iy),#0x01
;code.c:224: cpc_PutSpXOR(pelota, 11, 3, cpc_GetScrAddress(cx,cy));
	ld	iy,#2
	add	iy,sp
	ld	a,0 (iy)
	push	af
	inc	sp
	ld	iy,#10
	add	iy,sp
	ld	a,0 (iy)
	push	af
	inc	sp
	call	_cpc_GetScrAddress
	ld	de,#_pelota
	push	hl
	ld	hl,#0x030B
	push	hl
	push	de
	call	_cpc_PutSpXOR
;code.c:225: cx=28;
	ld	iy,#9
	add	iy,sp
	ld	0 (iy),#0x1C
;code.c:226: cy=20;
	ld	iy,#2
	add	iy,sp
	ld	0 (iy),#0x14
;code.c:227: cpc_PutSpXOR(pelota, 11, 3, cpc_GetScrAddress(cx,cy));
	ld	hl,#0x141C
	push	hl
	call	_cpc_GetScrAddress
	ld	de,#_pelota
	push	hl
	ld	hl,#0x030B
	push	hl
	push	de
	call	_cpc_PutSpXOR
	jp	00137$
00139$:
;code.c:232: cpc_WyzSetPlayerOff();	//stop music and SFX
	call	_cpc_WyzSetPlayerOff
;code.c:233: cpc_EnableFirmware();
	call	_cpc_EnableFirmware
;code.c:234: return 0;
	ld	hl,#0x0000
	ld	iy,#10
	add	iy,sp
	ld	sp,iy
	ret
___str_0:
	.ascii "SFX & MUSIC DEMO. CPCRSLIB 2012-15"
	.db 0x00
___str_1:
	.ascii "PSG PROPLAYER BY WYZ 2010"
	.db 0x00
___str_2:
	.ascii "Press keys 1 to 4 to play SFX"
	.db 0x00
___str_3:
	.ascii "Up & Down to change song"
	.db 0x00
___str_4:
	.ascii "ESC to Quit"
	.db 0x00
___str_5:
	.ascii "NOW;PLAYING:"
	.db 0x00
	.area _CODE
	.area _INITIALIZER
	.area _CABS (ABS)
